ARM GAS  C:\msys64\tmp\ccczchWq.s 			page 1


   1              		.syntax unified
   2              		.cpu cortex-m4
   3              		.eabi_attribute 27, 1
   4              		.eabi_attribute 28, 1
   5              		.fpu fpv4-sp-d16
   6              		.eabi_attribute 20, 1
   7              		.eabi_attribute 21, 1
   8              		.eabi_attribute 23, 3
   9              		.eabi_attribute 24, 1
  10              		.eabi_attribute 25, 1
  11              		.eabi_attribute 26, 1
  12              		.eabi_attribute 30, 4
  13              		.eabi_attribute 34, 1
  14              		.eabi_attribute 18, 4
  15              		.thumb
  16              		.syntax unified
  17              		.file	"my_osc.cpp"
  18              		.text
  19              	.Ltext0:
  20              		.cfi_sections	.debug_frame
  21              		.align	1
  22              		.global	_hook_init
  23              		.thumb
  24              		.thumb_func
  25              		.type	_hook_init, %function
  26              	_hook_init:
  27              	.LFB281:
  28              		.file 1 "my_osc.cpp"
  29              		.loc 1 21 0
  30              		.cfi_startproc
  31              		@ args = 0, pretend = 0, frame = 0
  32              		@ frame_needed = 0, uses_anonymous_args = 0
  33              		@ link register save eliminated.
  34              	.LVL0:
  35              		.loc 1 22 0
  36 0000 054B     		ldr	r3, .L2
  37 0002 0022     		movs	r2, #0
  38 0004 1A60     		str	r2, [r3]	@ float
  39              		.loc 1 23 0
  40 0006 5A60     		str	r2, [r3, #4]	@ float
  41              		.loc 1 24 0
  42 0008 9A60     		str	r2, [r3, #8]	@ float
  43              		.loc 1 25 0
  44 000a DA60     		str	r2, [r3, #12]	@ float
  45              		.loc 1 26 0
  46 000c 0022     		movs	r2, #0
  47 000e 5A82     		strh	r2, [r3, #18]	@ movhi
  48              		.loc 1 27 0
  49 0010 9A82     		strh	r2, [r3, #20]	@ movhi
  50              		.loc 1 28 0
  51 0012 1A82     		strh	r2, [r3, #16]	@ movhi
  52 0014 7047     		bx	lr
  53              	.L3:
  54 0016 00BF     		.align	2
  55              	.L2:
  56 0018 00000000 		.word	.LANCHOR0
  57              		.cfi_endproc
ARM GAS  C:\msys64\tmp\ccczchWq.s 			page 2


  58              	.LFE281:
  59              		.size	_hook_init, .-_hook_init
  60              		.align	1
  61              		.global	_Z3oscft
  62              		.thumb
  63              		.thumb_func
  64              		.type	_Z3oscft, %function
  65              	_Z3oscft:
  66              	.LFB282:
  67              		.loc 1 33 0
  68              		.cfi_startproc
  69              		@ args = 0, pretend = 0, frame = 0
  70              		@ frame_needed = 0, uses_anonymous_args = 0
  71              		@ link register save eliminated.
  72              	.LVL1:
  73              		.loc 1 34 0
  74 001c 0428     		cmp	r0, #4
  75 001e 00F2A780 		bhi	.L5
  76 0022 DFE800F0 		tbb	[pc, r0]
  77              	.L7:
  78 0026 03       		.byte	(.L6-.L7)/2
  79 0027 2C       		.byte	(.L8-.L7)/2
  80 0028 5F       		.byte	(.L9-.L7)/2
  81 0029 97       		.byte	(.L10-.L7)/2
  82 002a A6       		.byte	(.L19-.L7)/2
  83 002b 00       		.p2align 1
  84              	.L6:
  85              	.LVL2:
  86              	.LBB76:
  87              	.LBB77:
  88              		.file 2 "../inc/osc_api.h"
  89              		.loc 2 160 0
  90 002c FCEEC07A 		vcvt.u32.f32	s15, s0
  91              		.loc 2 166 0
  92 0030 514A     		ldr	r2, .L22
  93              		.loc 2 160 0
  94 0032 F8EE677A 		vcvt.f32.u32	s15, s15
  95 0036 30EE670A 		vsub.f32	s0, s0, s15
  96              	.LVL3:
  97 003a DFED507A 		vldr.32	s15, .L22+4
  98 003e 60EE277A 		vmul.f32	s15, s0, s15
  99              	.LVL4:
 100              		.loc 2 161 0
 101 0042 BCEEE77A 		vcvt.u32.f32	s14, s15
 102 0046 17EE101A 		vmov	r1, s14	@ int
 103              	.LVL5:
 104              		.loc 2 163 0
 105 004a 01F07F03 		and	r3, r1, #127
 106              	.LVL6:
 107              		.loc 2 166 0
 108 004e 02EB8300 		add	r0, r2, r3, lsl #2
 109              	.LVL7:
 110 0052 0133     		adds	r3, r3, #1
 111              	.LVL8:
 112              	.LBB78:
 113              	.LBB79:
 114              		.file 3 "../inc/utils/float_math.h"
ARM GAS  C:\msys64\tmp\ccczchWq.s 			page 3


 115              		.loc 3 826 0
 116 0054 B8EE477A 		vcvt.f32.u32	s14, s14
 117              	.LBE79:
 118              	.LBE78:
 119              		.loc 2 166 0
 120 0058 03F07F03 		and	r3, r3, #127
 121              	.LVL9:
 122 005c 02EB8303 		add	r3, r2, r3, lsl #2
 123              	.LVL10:
 124 0060 90ED000A 		vldr.32	s0, [r0]
 125              	.LVL11:
 126              	.LBB82:
 127              	.LBB80:
 128              		.loc 3 826 0
 129 0064 77EEC77A 		vsub.f32	s15, s15, s14
 130              	.LVL12:
 131 0068 93ED007A 		vldr.32	s14, [r3]
 132 006c 37EE407A 		vsub.f32	s14, s14, s0
 133              	.LBE80:
 134              	.LBE82:
 135              		.loc 2 167 0
 136 0070 7F29     		cmp	r1, #127
 137              	.LBB83:
 138              	.LBB81:
 139              		.loc 3 826 0
 140 0072 A7EE870A 		vfma.f32	s0, s15, s14
 141              	.LVL13:
 142              	.LBE81:
 143              	.LBE83:
 144              		.loc 2 167 0
 145 0076 7ED9     		bls	.L4
 146 0078 B1EE400A 		vneg.f32	s0, s0
 147 007c 7047     		bx	lr
 148              	.LVL14:
 149              	.L8:
 150              	.LBE77:
 151              	.LBE76:
 152              	.LBB84:
 153              	.LBB85:
 154              		.loc 2 211 0
 155 007e FCEEC07A 		vcvt.u32.f32	s15, s0
 156              		.loc 2 222 0
 157 0082 3F49     		ldr	r1, .L22+8
 158              		.loc 2 211 0
 159 0084 F8EE677A 		vcvt.f32.u32	s15, s15
 160 0088 30EE670A 		vsub.f32	s0, s0, s15
 161              	.LVL15:
 162 008c DFED3B7A 		vldr.32	s15, .L22+4
 163 0090 60EE277A 		vmul.f32	s15, s0, s15
 164              	.LVL16:
 165              		.loc 2 212 0
 166 0094 BCEEE77A 		vcvt.u32.f32	s14, s15
 167 0098 17EE103A 		vmov	r3, s14	@ int
 168              	.LVL17:
 169              		.loc 2 216 0
 170 009c 7F2B     		cmp	r3, #127
 171              		.loc 2 217 0
ARM GAS  C:\msys64\tmp\ccczchWq.s 			page 4


 172 009e 87BF     		ittee	hi
 173 00a0 03F07F02 		andhi	r2, r3, #127
 174 00a4 C2F18000 		rsbhi	r0, r2, #128
 175              	.LVL18:
 176              		.loc 2 214 0
 177 00a8 5A1C     		addls	r2, r3, #1
 178 00aa 1846     		movls	r0, r3
 179              	.LVL19:
 180              		.loc 2 218 0
 181 00ac 88BF     		it	hi
 182 00ae C2F17F02 		rsbhi	r2, r2, #127
 183              	.LVL20:
 184              		.loc 2 223 0
 185 00b2 B8EE477A 		vcvt.f32.u32	s14, s14
 186              		.loc 2 222 0
 187 00b6 01EB8000 		add	r0, r1, r0, lsl #2
 188              	.LVL21:
 189 00ba 01EB8202 		add	r2, r1, r2, lsl #2
 190              	.LVL22:
 191 00be 90ED000A 		vldr.32	s0, [r0]
 192              		.loc 2 223 0
 193 00c2 77EEC77A 		vsub.f32	s15, s15, s14
 194              	.LVL23:
 195 00c6 92ED007A 		vldr.32	s14, [r2]
 196 00ca 37EE407A 		vsub.f32	s14, s14, s0
 197              		.loc 2 215 0
 198 00ce 98BF     		it	ls
 199 00d0 F7EE006A 		vmovls.f32	s13, #1.0e+0
 200              		.loc 2 223 0
 201 00d4 A7EE870A 		vfma.f32	s0, s15, s14
 202              		.loc 2 219 0
 203 00d8 88BF     		it	hi
 204 00da FFEE006A 		vmovhi.f32	s13, #-1.0e+0
 205              	.LVL24:
 206              		.loc 2 223 0
 207 00de 20EE260A 		vmul.f32	s0, s0, s13
 208              	.LVL25:
 209              	.LBE85:
 210              	.LBE84:
 211              		.loc 1 39 0
 212 00e2 7047     		bx	lr
 213              	.LVL26:
 214              	.L9:
 215              	.LBB86:
 216              	.LBB87:
 217              		.loc 2 439 0
 218 00e4 FCEEC07A 		vcvt.u32.f32	s15, s0
 219 00e8 F8EE677A 		vcvt.f32.u32	s15, s15
 220 00ec 30EE670A 		vsub.f32	s0, s0, s15
 221              	.LVL27:
 222 00f0 DFED227A 		vldr.32	s15, .L22+4
 223 00f4 60EE277A 		vmul.f32	s15, s0, s15
 224              	.LVL28:
 225              		.loc 2 440 0
 226 00f8 BCEEE77A 		vcvt.u32.f32	s14, s15
 227 00fc 17EE103A 		vmov	r3, s14	@ int
 228              	.LVL29:
ARM GAS  C:\msys64\tmp\ccczchWq.s 			page 5


 229              		.loc 2 442 0
 230 0100 802B     		cmp	r3, #128
 231 0102 04D9     		bls	.L14
 232 0104 03F07F02 		and	r2, r3, #127
 233 0108 C2F18002 		rsb	r2, r2, #128
 234              	.LVL30:
 235 010c 09E0     		b	.L15
 236              	.LVL31:
 237              	.L14:
 238              		.loc 2 443 0
 239 010e 7E2B     		cmp	r3, #126
 240 0110 03D8     		bhi	.L16
 241 0112 581C     		adds	r0, r3, #1
 242              	.LVL32:
 243 0114 17EE102A 		vmov	r2, s14	@ int
 244 0118 08E0     		b	.L17
 245              	.LVL33:
 246              	.L16:
 247 011a 7F2B     		cmp	r3, #127
 248 011c 03D0     		beq	.L18
 249 011e 17EE102A 		vmov	r2, s14	@ int
 250              	.LVL34:
 251              	.L15:
 252 0122 501E     		subs	r0, r2, #1
 253              	.LVL35:
 254 0124 02E0     		b	.L17
 255              	.LVL36:
 256              	.L18:
 257 0126 17EE102A 		vmov	r2, s14	@ int
 258 012a 8020     		movs	r0, #128
 259              	.LVL37:
 260              	.L17:
 261              	.LBB88:
 262              	.LBB89:
 263              		.loc 3 826 0
 264 012c 07EE103A 		vmov	s14, r3	@ int
 265              	.LBE89:
 266              	.LBE88:
 267              		.loc 2 444 0
 268 0130 1449     		ldr	r1, .L22+12
 269              	.LBB92:
 270              	.LBB90:
 271              		.loc 3 826 0
 272 0132 B8EE477A 		vcvt.f32.u32	s14, s14
 273              	.LBE90:
 274              	.LBE92:
 275              		.loc 2 444 0
 276 0136 01EB8202 		add	r2, r1, r2, lsl #2
 277              	.LVL38:
 278 013a 01EB8001 		add	r1, r1, r0, lsl #2
 279 013e 92ED000A 		vldr.32	s0, [r2]
 280              	.LVL39:
 281              	.LBB93:
 282              	.LBB91:
 283              		.loc 3 826 0
 284 0142 77EEC77A 		vsub.f32	s15, s15, s14
 285              	.LVL40:
ARM GAS  C:\msys64\tmp\ccczchWq.s 			page 6


 286 0146 91ED007A 		vldr.32	s14, [r1]
 287 014a 37EE407A 		vsub.f32	s14, s14, s0
 288 014e A7EE870A 		vfma.f32	s0, s15, s14
 289              	.LVL41:
 290              	.LBE91:
 291              	.LBE93:
 292              	.LBE87:
 293              	.LBE86:
 294              		.loc 1 41 0
 295 0152 7047     		bx	lr
 296              	.LVL42:
 297              	.L10:
 298              		.loc 1 43 0
 299 0154 F6EE007A 		vmov.f32	s15, #5.0e-1
 300 0158 B4EEE70A 		vcmpe.f32	s0, s15
 301 015c DFED0A7A 		vldr.32	s15, .L22+16
 302 0160 9FED0A0A 		vldr.32	s0, .L22+20
 303              	.LVL43:
 304 0164 F1EE10FA 		vmrs	APSR_nzcv, FPSCR
 305 0168 98BF     		it	ls
 306 016a B0EE670A 		vmovls.f32	s0, s15
 307 016e 7047     		bx	lr
 308              	.LVL44:
 309              	.L5:
 310              	.LVL45:
 311              		.loc 1 47 0
 312 0170 7047     		bx	lr
 313              	.LVL46:
 314              	.L19:
 315              		.loc 1 45 0
 316 0172 9FED070A 		vldr.32	s0, .L22+24
 317              	.LVL47:
 318              	.L4:
 319              		.loc 1 47 0
 320 0176 7047     		bx	lr
 321              	.L23:
 322              		.align	2
 323              	.L22:
 324 0178 00000000 		.word	wt_sine_lut_f
 325 017c 00008043 		.word	1132462080
 326 0180 00000000 		.word	wt_saw_lut_f
 327 0184 00000000 		.word	wt_par_lut_f
 328 0188 CDCC4C3F 		.word	1061997773
 329 018c CDCC4CBF 		.word	-1085485875
 330 0190 00000000 		.word	0
 331              		.cfi_endproc
 332              	.LFE282:
 333              		.size	_Z3oscft, .-_Z3oscft
 334              		.align	1
 335              		.global	_Z13computePhasesffPlm
 336              		.thumb
 337              		.thumb_func
 338              		.type	_Z13computePhasesffPlm, %function
 339              	_Z13computePhasesffPlm:
 340              	.LFB283:
 341              		.loc 1 51 0
 342              		.cfi_startproc
ARM GAS  C:\msys64\tmp\ccczchWq.s 			page 7


 343              		@ args = 0, pretend = 0, frame = 0
 344              		@ frame_needed = 0, uses_anonymous_args = 0
 345              	.LVL48:
 346              	.LBB94:
 347              	.LBB95:
 348              		.loc 1 59 0
 349 0194 2C4B     		ldr	r3, .L37
 350              		.loc 1 74 0
 351 0196 9FED2D4A 		vldr.32	s8, .L37+4
 352 019a D3ED025A 		vldr.32	s11, [r3, #8]
 353 019e 93ED036A 		vldr.32	s12, [r3, #12]
 354              	.LBE95:
 355              	.LBE94:
 356              		.loc 1 51 0
 357 01a2 2DE9F041 		push	{r4, r5, r6, r7, r8, lr}
 358              		.cfi_def_cfa_offset 24
 359              		.cfi_offset 4, -24
 360              		.cfi_offset 5, -20
 361              		.cfi_offset 6, -16
 362              		.cfi_offset 7, -12
 363              		.cfi_offset 8, -8
 364              		.cfi_offset 14, -4
 365              	.LBB99:
 366              	.LBB96:
 367              		.loc 1 59 0
 368 01a6 B3F81280 		ldrh	r8, [r3, #18]
 369              		.loc 1 68 0
 370 01aa 9E8A     		ldrh	r6, [r3, #20]
 371              	.LBE96:
 372              	.LBE99:
 373              		.loc 1 51 0
 374 01ac F0EE403A 		vmov.f32	s7, s0
 375 01b0 0546     		mov	r5, r0
 376              		.loc 1 52 0
 377 01b2 00EB8107 		add	r7, r0, r1, lsl #2
 378              	.LVL49:
 379 01b6 1C46     		mov	r4, r3
 380              	.LBB100:
 381              	.LBB97:
 382              		.loc 1 56 0
 383 01b8 F7EE004A 		vmov.f32	s9, #1.0e+0
 384              	.LVL50:
 385              	.L32:
 386              	.LBE97:
 387              		.loc 1 54 0
 388 01bc BD42     		cmp	r5, r7
 389 01be 3DD0     		beq	.L25
 390              	.LVL51:
 391              	.LBB98:
 392              		.loc 1 56 0
 393 01c0 F5EEC05A 		vcmpe.f32	s11, #0
 394 01c4 F1EE10FA 		vmrs	APSR_nzcv, FPSCR
 395 01c8 8ABF     		itet	hi
 396 01ca BCEEE50A 		vcvthi.u32.f32	s0, s11
 397 01ce 34EEE50A 		vsubls.f32	s0, s9, s11
 398 01d2 B8EE400A 		vcvthi.f32.u32	s0, s0
 399              		.loc 1 59 0
ARM GAS  C:\msys64\tmp\ccczchWq.s 			page 8


 400 01d6 4046     		mov	r0, r8
 401              		.loc 1 56 0
 402 01d8 88BF     		it	hi
 403 01da 35EEC00A 		vsubhi.f32	s0, s11, s0
 404              	.LVL52:
 405              		.loc 1 59 0
 406 01de FFF7FEFF 		bl	_Z3oscft
 407              	.LVL53:
 408              		.loc 1 65 0
 409 01e2 B5EEC06A 		vcmpe.f32	s12, #0
 410 01e6 F1EE10FA 		vmrs	APSR_nzcv, FPSCR
 411              		.loc 1 61 0
 412 01ea 73EEA55A 		vadd.f32	s11, s7, s11
 413              		.loc 1 59 0
 414 01ee B0EE405A 		vmov.f32	s10, s0
 415              	.LVL54:
 416              		.loc 1 65 0
 417 01f2 88BF     		it	hi
 418 01f4 BCEEC60A 		vcvthi.u32.f32	s0, s12
 419              	.LVL55:
 420              		.loc 1 62 0
 421 01f8 FCEEE57A 		vcvt.u32.f32	s15, s11
 422              		.loc 1 65 0
 423 01fc 88BF     		it	hi
 424 01fe B8EE400A 		vcvthi.f32.u32	s0, s0
 425              		.loc 1 62 0
 426 0202 F8EE677A 		vcvt.f32.u32	s15, s15
 427              		.loc 1 65 0
 428 0206 94BF     		ite	ls
 429 0208 34EEC60A 		vsubls.f32	s0, s9, s12
 430 020c 36EE400A 		vsubhi.f32	s0, s12, s0
 431              		.loc 1 68 0
 432 0210 3046     		mov	r0, r6
 433              		.loc 1 62 0
 434 0212 75EEE75A 		vsub.f32	s11, s11, s15
 435              	.LVL56:
 436              		.loc 1 68 0
 437 0216 FFF7FEFF 		bl	_Z3oscft
 438              	.LVL57:
 439              		.loc 1 70 0
 440 021a 36EE206A 		vadd.f32	s12, s12, s1
 441              		.loc 1 74 0
 442 021e 35EE000A 		vadd.f32	s0, s10, s0
 443              	.LVL58:
 444              		.loc 1 71 0
 445 0222 FCEEC67A 		vcvt.u32.f32	s15, s12
 446              		.loc 1 74 0
 447 0226 20EE040A 		vmul.f32	s0, s0, s8
 448              		.loc 1 71 0
 449 022a F8EE677A 		vcvt.f32.u32	s15, s15
 450              		.loc 1 74 0
 451 022e BDEEC00A 		vcvt.s32.f32	s0, s0
 452              		.loc 1 71 0
 453 0232 36EE676A 		vsub.f32	s12, s12, s15
 454              		.loc 1 74 0
 455 0236 A5EC010A 		vstmia.32	r5!, {s0}	@ int
 456              	.LVL59:
ARM GAS  C:\msys64\tmp\ccczchWq.s 			page 9


 457              	.LBE98:
 458              		.loc 1 54 0
 459 023a BFE7     		b	.L32
 460              	.LVL60:
 461              	.L25:
 462 023c C4ED025A 		vstr.32	s11, [r4, #8]
 463 0240 84ED036A 		vstr.32	s12, [r4, #12]
 464              	.LBE100:
 465              		.loc 1 77 0
 466 0244 BDE8F081 		pop	{r4, r5, r6, r7, r8, pc}
 467              	.LVL61:
 468              	.L38:
 469              		.align	2
 470              	.L37:
 471 0248 00000000 		.word	.LANCHOR0
 472 024c 0000004F 		.word	1325400064
 473              		.cfi_endproc
 474              	.LFE283:
 475              		.size	_Z13computePhasesffPlm, .-_Z13computePhasesffPlm
 476              		.align	1
 477              		.global	_hook_cycle
 478              		.thumb
 479              		.thumb_func
 480              		.type	_hook_cycle, %function
 481              	_hook_cycle:
 482              	.LFB284:
 483              		.loc 1 83 0
 484              		.cfi_startproc
 485              		@ args = 0, pretend = 0, frame = 0
 486              		@ frame_needed = 0, uses_anonymous_args = 0
 487              		@ link register save eliminated.
 488              	.LVL62:
 489 0250 30B4     		push	{r4, r5}
 490              		.cfi_def_cfa_offset 8
 491              		.cfi_offset 4, -8
 492              		.cfi_offset 5, -4
 493              		.loc 1 83 0
 494 0252 0C46     		mov	r4, r1
 495              		.loc 1 84 0
 496 0254 8188     		ldrh	r1, [r0, #4]
 497              	.LVL63:
 498              	.LBB101:
 499              	.LBB102:
 500              	.LBB103:
 501              	.LBB104:
 502              		.loc 2 115 0
 503 0256 2D4D     		ldr	r5, .L52
 504              	.LBE104:
 505              	.LBE103:
 506              		.loc 2 128 0
 507 0258 DFED2D7A 		vldr.32	s15, .L52+4
 508              		.loc 2 130 0
 509 025c 9FED2D6A 		vldr.32	s12, .L52+8
 510              	.LBE102:
 511              	.LBE101:
 512              		.loc 1 84 0
 513 0260 0812     		asrs	r0, r1, #8
ARM GAS  C:\msys64\tmp\ccczchWq.s 			page 10


 514              	.LVL64:
 515 0262 C3B2     		uxtb	r3, r0
 516 0264 C9B2     		uxtb	r1, r1
 517 0266 07EE101A 		vmov	s14, r1	@ int
 518              	.LVL65:
 519              	.LBB137:
 520              	.LBB131:
 521              		.loc 2 126 0
 522 026a 591C     		adds	r1, r3, #1
 523              	.LVL66:
 524              	.LBB111:
 525              	.LBB107:
 526              	.LBB105:
 527              	.LBB106:
 528              		.file 4 "../inc/utils/int_math.h"
 529              		.loc 4 85 0
 530 026c 9628     		cmp	r0, #150
 531              	.LBE106:
 532              	.LBE105:
 533              	.LBE107:
 534              	.LBE111:
 535              		.loc 2 126 0
 536 026e C9B2     		uxtb	r1, r1
 537              	.LBB112:
 538              	.LBB108:
 539              		.loc 2 115 0
 540 0270 C8BF     		it	gt
 541 0272 9720     		movgt	r0, #151
 542              	.LVL67:
 543              	.LBE108:
 544              	.LBE112:
 545              	.LBB113:
 546              	.LBB114:
 547              	.LBB115:
 548              	.LBB116:
 549              		.loc 4 85 0
 550 0274 9629     		cmp	r1, #150
 551              	.LBE116:
 552              	.LBE115:
 553              		.loc 2 115 0
 554 0276 88BF     		it	hi
 555 0278 9721     		movhi	r1, #151
 556              	.LBE114:
 557              	.LBE113:
 558              		.loc 2 128 0
 559 027a B8EEC77A 		vcvt.f32.s32	s14, s14
 560              	.LVL68:
 561              	.LBB118:
 562              	.LBB109:
 563              		.loc 2 115 0
 564 027e 05EB8000 		add	r0, r5, r0, lsl #2
 565              	.LBE109:
 566              	.LBE118:
 567              	.LBB119:
 568              	.LBB117:
 569 0282 05EB8101 		add	r1, r5, r1, lsl #2
 570              	.LBE117:
ARM GAS  C:\msys64\tmp\ccczchWq.s 			page 11


 571              	.LBE119:
 572              	.LBB120:
 573              	.LBB110:
 574 0286 90ED000A 		vldr.32	s0, [r0]
 575              	.LVL69:
 576              	.LBE110:
 577              	.LBE120:
 578              	.LBE131:
 579              	.LBE137:
 580              		.loc 1 84 0
 581 028a 2348     		ldr	r0, .L52+12
 582              	.LBB138:
 583              	.LBB132:
 584              		.loc 2 128 0
 585 028c 27EE277A 		vmul.f32	s14, s14, s15
 586              	.LVL70:
 587              	.LBB121:
 588              	.LBB122:
 589              		.loc 3 826 0
 590 0290 D1ED007A 		vldr.32	s15, [r1]
 591              	.LBE122:
 592              	.LBE121:
 593              	.LBE132:
 594              	.LBE138:
 595              		.loc 1 85 0
 596 0294 017C     		ldrb	r1, [r0, #16]	@ zero_extendqisi2
 597              	.LBB139:
 598              	.LBB133:
 599              	.LBB125:
 600              	.LBB123:
 601              		.loc 3 826 0
 602 0296 77EEC07A 		vsub.f32	s15, s15, s0
 603              	.LBE123:
 604              	.LBE125:
 605              	.LBE133:
 606              	.LBE139:
 607              		.loc 1 85 0
 608 029a 0B44     		add	r3, r3, r1
 609              	.LVL71:
 610              	.LBB140:
 611              	.LBB134:
 612              	.LBB126:
 613              	.LBB124:
 614              		.loc 3 826 0
 615 029c A7EE270A 		vfma.f32	s0, s14, s15
 616              	.LVL72:
 617              	.LBE124:
 618              	.LBE126:
 619              	.LBE134:
 620              	.LBE140:
 621              		.loc 1 85 0
 622 02a0 DBB2     		uxtb	r3, r3
 623              	.LBB141:
 624              	.LBB135:
 625              	.LBB127:
 626              	.LBB128:
 627              	.LBB129:
ARM GAS  C:\msys64\tmp\ccczchWq.s 			page 12


 628              	.LBB130:
 629              		.loc 3 193 0
 630 02a2 DFED1E7A 		vldr.32	s15, .L52+16
 631 02a6 B4EEE70A 		vcmpe.f32	s0, s15
 632 02aa F1EE10FA 		vmrs	APSR_nzcv, FPSCR
 633 02ae A8BF     		it	ge
 634 02b0 B0EE670A 		vmovge.f32	s0, s15
 635              	.LVL73:
 636              	.LBE130:
 637              	.LBE129:
 638              	.LBE128:
 639              	.LBE127:
 640              	.LBE135:
 641              	.LBE141:
 642              	.LBB142:
 643              	.LBB143:
 644              	.LBB144:
 645              	.LBB145:
 646              	.LBB146:
 647              	.LBB147:
 648              		.loc 4 85 0
 649 02b4 962B     		cmp	r3, #150
 650              	.LBE147:
 651              	.LBE146:
 652              		.loc 2 115 0
 653 02b6 98BF     		it	ls
 654 02b8 1946     		movls	r1, r3
 655              	.LBE145:
 656              	.LBE144:
 657              		.loc 2 126 0
 658 02ba 03F10103 		add	r3, r3, #1
 659 02be DBB2     		uxtb	r3, r3
 660              	.LBB151:
 661              	.LBB148:
 662              		.loc 2 115 0
 663 02c0 88BF     		it	hi
 664 02c2 9721     		movhi	r1, #151
 665              	.LBE148:
 666              	.LBE151:
 667              	.LBB152:
 668              	.LBB153:
 669              	.LBB154:
 670              	.LBB155:
 671              		.loc 4 85 0
 672 02c4 962B     		cmp	r3, #150
 673              	.LBE155:
 674              	.LBE154:
 675              		.loc 2 115 0
 676 02c6 88BF     		it	hi
 677 02c8 9723     		movhi	r3, #151
 678              	.LBE153:
 679              	.LBE152:
 680              	.LBB157:
 681              	.LBB149:
 682 02ca 05EB8101 		add	r1, r5, r1, lsl #2
 683              	.LBE149:
 684              	.LBE157:
ARM GAS  C:\msys64\tmp\ccczchWq.s 			page 13


 685              	.LBB158:
 686              	.LBB156:
 687 02ce 05EB8303 		add	r3, r5, r3, lsl #2
 688              	.LBE156:
 689              	.LBE158:
 690              	.LBB159:
 691              	.LBB150:
 692 02d2 D1ED000A 		vldr.32	s1, [r1]
 693              	.LBE150:
 694              	.LBE159:
 695              	.LBB160:
 696              	.LBB161:
 697              		.loc 3 826 0
 698 02d6 D3ED006A 		vldr.32	s13, [r3]
 699 02da 76EEE06A 		vsub.f32	s13, s13, s1
 700              	.LBE161:
 701              	.LBE160:
 702              	.LBE143:
 703              	.LBE142:
 704              	.LBB170:
 705              	.LBB136:
 706              		.loc 2 130 0
 707 02de 20EE060A 		vmul.f32	s0, s0, s12
 708              	.LVL74:
 709              	.LBE136:
 710              	.LBE170:
 711              	.LBB171:
 712              	.LBB168:
 713              	.LBB163:
 714              	.LBB162:
 715              		.loc 3 826 0
 716 02e2 E6EE870A 		vfma.f32	s1, s13, s14
 717              	.LBE162:
 718              	.LBE163:
 719              	.LBE168:
 720              	.LBE171:
 721              		.loc 1 89 0
 722 02e6 1146     		mov	r1, r2
 723              		.loc 1 84 0
 724 02e8 80ED000A 		vstr.32	s0, [r0]
 725              	.LVL75:
 726              	.LBB172:
 727              	.LBB169:
 728              	.LBB164:
 729              	.LBB165:
 730              	.LBB166:
 731              	.LBB167:
 732              		.loc 3 193 0
 733 02ec F4EEE70A 		vcmpe.f32	s1, s15
 734 02f0 F1EE10FA 		vmrs	APSR_nzcv, FPSCR
 735 02f4 B8BF     		it	lt
 736 02f6 F0EE607A 		vmovlt.f32	s15, s1
 737              	.LVL76:
 738              	.LBE167:
 739              	.LBE166:
 740              	.LBE165:
 741              	.LBE164:
ARM GAS  C:\msys64\tmp\ccczchWq.s 			page 14


 742              		.loc 2 130 0
 743 02fa 67EE860A 		vmul.f32	s1, s15, s12
 744              	.LVL77:
 745              	.LBE169:
 746              	.LBE172:
 747              		.loc 1 85 0
 748 02fe C0ED010A 		vstr.32	s1, [r0, #4]
 749              	.LVL78:
 750              		.loc 1 89 0
 751 0302 2046     		mov	r0, r4
 752              		.loc 1 90 0
 753 0304 30BC     		pop	{r4, r5}
 754              		.cfi_restore 5
 755              		.cfi_restore 4
 756              		.cfi_def_cfa_offset 0
 757              	.LVL79:
 758              		.loc 1 89 0
 759 0306 FFF7FEBF 		b	_Z13computePhasesffPlm
 760              	.LVL80:
 761              	.L53:
 762 030a 00BF     		.align	2
 763              	.L52:
 764 030c 00000000 		.word	midi_to_hz_lut_f
 765 0310 8180803B 		.word	998277249
 766 0314 3EC3AE37 		.word	934200126
 767 0318 00000000 		.word	.LANCHOR0
 768 031c 49FFB846 		.word	1186529097
 769              		.cfi_endproc
 770              	.LFE284:
 771              		.size	_hook_cycle, .-_hook_cycle
 772              		.align	1
 773              		.global	_hook_on
 774              		.thumb
 775              		.thumb_func
 776              		.type	_hook_on, %function
 777              	_hook_on:
 778              	.LFB289:
 779              		.cfi_startproc
 780              		@ args = 0, pretend = 0, frame = 0
 781              		@ frame_needed = 0, uses_anonymous_args = 0
 782              		@ link register save eliminated.
 783 0320 7047     		bx	lr
 784              		.cfi_endproc
 785              	.LFE289:
 786              		.size	_hook_on, .-_hook_on
 787              		.align	1
 788              		.global	_hook_off
 789              		.thumb
 790              		.thumb_func
 791              		.type	_hook_off, %function
 792              	_hook_off:
 793              	.LFB286:
 794              		.loc 1 99 0
 795              		.cfi_startproc
 796              		@ args = 0, pretend = 0, frame = 0
 797              		@ frame_needed = 0, uses_anonymous_args = 0
 798              		@ link register save eliminated.
ARM GAS  C:\msys64\tmp\ccczchWq.s 			page 15


 799              	.LVL81:
 800 0322 7047     		bx	lr
 801              		.cfi_endproc
 802              	.LFE286:
 803              		.size	_hook_off, .-_hook_off
 804              		.align	1
 805              		.global	_hook_param
 806              		.thumb
 807              		.thumb_func
 808              		.type	_hook_param, %function
 809              	_hook_param:
 810              	.LFB287:
 811              		.loc 1 105 0
 812              		.cfi_startproc
 813              		@ args = 0, pretend = 0, frame = 0
 814              		@ frame_needed = 0, uses_anonymous_args = 0
 815              		@ link register save eliminated.
 816              	.LVL82:
 817              		.loc 1 108 0
 818 0324 0128     		cmp	r0, #1
 819 0326 06D0     		beq	.L58
 820 0328 02D3     		bcc	.L59
 821 032a 0228     		cmp	r0, #2
 822 032c 06D0     		beq	.L60
 823 032e 7047     		bx	lr
 824              	.L59:
 825              		.loc 1 110 0
 826 0330 044B     		ldr	r3, .L61
 827 0332 1982     		strh	r1, [r3, #16]	@ movhi
 828              		.loc 1 111 0
 829 0334 7047     		bx	lr
 830              	.L58:
 831              		.loc 1 113 0
 832 0336 034B     		ldr	r3, .L61
 833 0338 5982     		strh	r1, [r3, #18]	@ movhi
 834              		.loc 1 114 0
 835 033a 7047     		bx	lr
 836              	.L60:
 837              		.loc 1 116 0
 838 033c 014B     		ldr	r3, .L61
 839 033e 9982     		strh	r1, [r3, #20]	@ movhi
 840 0340 7047     		bx	lr
 841              	.L62:
 842 0342 00BF     		.align	2
 843              	.L61:
 844 0344 00000000 		.word	.LANCHOR0
 845              		.cfi_endproc
 846              	.LFE287:
 847              		.size	_hook_param, .-_hook_param
 848              		.bss
 849              		.align	2
 850              		.set	.LANCHOR0,. + 0
 851              		.type	_ZL7s_state, %object
 852              		.size	_ZL7s_state, 24
 853              	_ZL7s_state:
 854 0000 00000000 		.space	24
 854      00000000 
ARM GAS  C:\msys64\tmp\ccczchWq.s 			page 16


 854      00000000 
 854      00000000 
 854      00000000 
 855              		.text
 856              	.Letext0:
 857              		.file 5 "c:\\users\\guillaume\\documents\\cpp\\logue-sdk\\tools\\gcc\\gcc-arm-none-eabi-5_4-2016q3
 858              		.file 6 "c:\\users\\guillaume\\documents\\cpp\\logue-sdk\\tools\\gcc\\gcc-arm-none-eabi-5_4-2016q3
 859              		.file 7 "../../ext/CMSIS/CMSIS/Include/arm_math.h"
 860              		.file 8 "../inc/userosc.h"
 861              		.file 9 "../inc/userprg.h"
 862              		.file 10 "../inc/dsp/biquad.hpp"