ARM GAS  C:\msys64\tmp\ccczchWq.s 			page 1


   1              		.syntax unified
   2              		.cpu cortex-m4
   3              		.eabi_attribute 27, 1
   4              		.eabi_attribute 28, 1
   5              		.fpu fpv4-sp-d16
   6              		.eabi_attribute 20, 1
   7              		.eabi_attribute 21, 1
   8              		.eabi_attribute 23, 3
   9              		.eabi_attribute 24, 1
  10              		.eabi_attribute 25, 1
  11              		.eabi_attribute 26, 1
  12              		.eabi_attribute 30, 4
  13              		.eabi_attribute 34, 1
  14              		.eabi_attribute 18, 4
  15              		.thumb
  16              		.syntax unified
  17              		.file	"my_osc.cpp"
  18              		.text
  19              	.Ltext0:
  20              		.cfi_sections	.debug_frame
  21              		.align	1
  22              		.global	_hook_init
  23              		.thumb
  24              		.thumb_func
  25              		.type	_hook_init, %function
  26              	_hook_init:
  27              	.LFB281:
  28              		.file 1 "my_osc.cpp"
  29              		.loc 1 21 0
  30              		.cfi_startproc
  31              		@ args = 0, pretend = 0, frame = 0
  32              		@ frame_needed = 0, uses_anonymous_args = 0
  33              		@ link register save eliminated.
  34              	.LVL0:
  35              		.loc 1 22 0
  36 0000 054B     		ldr	r3, .L2
  37 0002 0022     		movs	r2, #0
  38 0004 1A60     		str	r2, [r3]	@ float
  39              		.loc 1 23 0
  40 0006 5A60     		str	r2, [r3, #4]	@ float
  41              		.loc 1 24 0
  42 0008 9A60     		str	r2, [r3, #8]	@ float
  43              		.loc 1 25 0
  44 000a DA60     		str	r2, [r3, #12]	@ float
  45              		.loc 1 26 0
  46 000c 0022     		movs	r2, #0
  47 000e 5A82     		strh	r2, [r3, #18]	@ movhi
  48              		.loc 1 27 0
  49 0010 9A82     		strh	r2, [r3, #20]	@ movhi
  50              		.loc 1 28 0
  51 0012 1A82     		strh	r2, [r3, #16]	@ movhi
  52 0014 7047     		bx	lr
  53              	.L3:
  54 0016 00BF     		.align	2
  55              	.L2:
  56 0018 00000000 		.word	.LANCHOR0
  57              		.cfi_endproc
ARM GAS  C:\msys64\tmp\ccczchWq.s 			page 2


  58              	.LFE281:
  59              		.size	_hook_init, .-_hook_init
  60              		.align	1
  61              		.global	_Z3oscft
  62              		.thumb
  63              		.thumb_func
  64              		.type	_Z3oscft, %function
  65              	_Z3oscft:
  66              	.LFB282:
  67              		.loc 1 33 0
  68              		.cfi_startproc
  69              		@ args = 0, pretend = 0, frame = 0
  70              		@ frame_needed = 0, uses_anonymous_args = 0
  71              		@ link register save eliminated.
  72              	.LVL1:
  73              		.loc 1 34 0
  74 001c 0428     		cmp	r0, #4
  75 001e 00F2A780 		bhi	.L5
  76 0022 DFE800F0 		tbb	[pc, r0]
  77              	.L7:
  78 0026 03       		.byte	(.L6-.L7)/2
  79 0027 2C       		.byte	(.L8-.L7)/2
  80 0028 5F       		.byte	(.L9-.L7)/2
  81 0029 97       		.byte	(.L10-.L7)/2
  82 002a A6       		.byte	(.L19-.L7)/2
  83 002b 00       		.p2align 1
  84              	.L6:
  85              	.LVL2:
  86              	.LBB76:
  87              	.LBB77:
  88              		.file 2 "../inc/osc_api.h"
  89              		.loc 2 160 0
  90 002c FCEEC07A 		vcvt.u32.f32	s15, s0
  91              		.loc 2 166 0
  92 0030 514A     		ldr	r2, .L22
  93              		.loc 2 160 0
  94 0032 F8EE677A 		vcvt.f32.u32	s15, s15
  95 0036 30EE670A 		vsub.f32	s0, s0, s15
  96              	.LVL3:
  97 003a DFED507A 		vldr.32	s15, .L22+4
  98 003e 60EE277A 		vmul.f32	s15, s0, s15
  99              	.LVL4:
 100              		.loc 2 161 0
 101 0042 BCEEE77A 		vcvt.u32.f32	s14, s15
 102 0046 17EE101A 		vmov	r1, s14	@ int
 103              	.LVL5:
 104              		.loc 2 163 0
 105 004a 01F07F03 		and	r3, r1, #127
 106              	.LVL6:
 107              		.loc 2 166 0
 108 004e 02EB8300 		add	r0, r2, r3, lsl #2
 109              	.LVL7:
 110 0052 0133     		adds	r3, r3, #1
 111              	.LVL8:
 112              	.LBB78:
 113              	.LBB79:
 114              		.file 3 "../inc/utils/float_math.h"
ARM GAS  C:\msys64\tmp\ccczchWq.s 			page 3


 115              		.loc 3 826 0
 116 0054 B8EE477A 		vcvt.f32.u32	s14, s14
 117              	.LBE79:
 118              	.LBE78:
 119              		.loc 2 166 0
 120 0058 03F07F03 		and	r3, r3, #127
 121              	.LVL9:
 122 005c 02EB8303 		add	r3, r2, r3, lsl #2
 123              	.LVL10:
 124 0060 90ED000A 		vldr.32	s0, [r0]
 125              	.LVL11:
 126              	.LBB82:
 127              	.LBB80:
 128              		.loc 3 826 0
 129 0064 77EEC77A 		vsub.f32	s15, s15, s14
 130              	.LVL12:
 131 0068 93ED007A 		vldr.32	s14, [r3]
 132 006c 37EE407A 		vsub.f32	s14, s14, s0
 133              	.LBE80:
 134              	.LBE82:
 135              		.loc 2 167 0
 136 0070 7F29     		cmp	r1, #127
 137              	.LBB83:
 138              	.LBB81:
 139              		.loc 3 826 0
 140 0072 A7EE870A 		vfma.f32	s0, s15, s14
 141              	.LVL13:
 142              	.LBE81:
 143              	.LBE83:
 144              		.loc 2 167 0
 145 0076 7ED9     		bls	.L4
 146 0078 B1EE400A 		vneg.f32	s0, s0
 147 007c 7047     		bx	lr
 148              	.LVL14:
 149              	.L8:
 150              	.LBE77:
 151              	.LBE76:
 152              	.LBB84:
 153              	.LBB85:
 154              		.loc 2 211 0
 155 007e FCEEC07A 		vcvt.u32.f32	s15, s0
 156              		.loc 2 222 0
 157 0082 3F49     		ldr	r1, .L22+8
 158              		.loc 2 211 0
 159 0084 F8EE677A 		vcvt.f32.u32	s15, s15
 160 0088 30EE670A 		vsub.f32	s0, s0, s15
 161              	.LVL15:
 162 008c DFED3B7A 		vldr.32	s15, .L22+4
 163 0090 60EE277A 		vmul.f32	s15, s0, s15
 164              	.LVL16:
 165              		.loc 2 212 0
 166 0094 BCEEE77A 		vcvt.u32.f32	s14, s15
 167 0098 17EE103A 		vmov	r3, s14	@ int
 168              	.LVL17:
 169              		.loc 2 216 0
 170 009c 7F2B     		cmp	r3, #127
 171              		.loc 2 217 0
ARM GAS  C:\msys64\tmp\ccczchWq.s 			page 4


 172 009e 87BF     		ittee	hi
 173 00a0 03F07F02 		andhi	r2, r3, #127
 174 00a4 C2F18000 		rsbhi	r0, r2, #128
 175              	.LVL18:
 176              		.loc 2 214 0
 177 00a8 5A1C     		addls	r2, r3, #1
 178 00aa 1846     		movls	r0, r3
 179              	.LVL19:
 180              		.loc 2 218 0
 181 00ac 88BF     		it	hi
 182 00ae C2F17F02 		rsbhi	r2, r2, #127
 183              	.LVL20:
 184              		.loc 2 223 0
 185 00b2 B8EE477A 		vcvt.f32.u32	s14, s14
 186              		.loc 2 222 0
 187 00b6 01EB8000 		add	r0, r1, r0, lsl #2
 188              	.LVL21:
 189 00ba 01EB8202 		add	r2, r1, r2, lsl #2
 190              	.LVL22:
 191 00be 90ED000A 		vldr.32	s0, [r0]
 192              		.loc 2 223 0
 193 00c2 77EEC77A 		vsub.f32	s15, s15, s14
 194              	.LVL23:
 195 00c6 92ED007A 		vldr.32	s14, [r2]
 196 00ca 37EE407A 		vsub.f32	s14, s14, s0
 197              		.loc 2 215 0
 198 00ce 98BF     		it	ls
 199 00d0 F7EE006A 		vmovls.f32	s13, #1.0e+0
 200              		.loc 2 223 0
 201 00d4 A7EE870A 		vfma.f32	s0, s15, s14
 202              		.loc 2 219 0
 203 00d8 88BF     		it	hi
 204 00da FFEE006A 		vmovhi.f32	s13, #-1.0e+0
 205              	.LVL24:
 206              		.loc 2 223 0
 207 00de 20EE260A 		vmul.f32	s0, s0, s13
 208              	.LVL25:
 209              	.LBE85:
 210              	.LBE84:
 211              		.loc 1 39 0
 212 00e2 7047     		bx	lr
 213              	.LVL26:
 214              	.L9:
 215              	.LBB86:
 216              	.LBB87:
 217              		.loc 2 439 0
 218 00e4 FCEEC07A 		vcvt.u32.f32	s15, s0
 219 00e8 F8EE677A 		vcvt.f32.u32	s15, s15
 220 00ec 30EE670A 		vsub.f32	s0, s0, s15
 221              	.LVL27:
 222 00f0 DFED227A 		vldr.32	s15, .L22+4
 223 00f4 60EE277A 		vmul.f32	s15, s0, s15
 224              	.LVL28:
 225              		.loc 2 440 0
 226 00f8 BCEEE77A 		vcvt.u32.f32	s14, s15
 227 00fc 17EE103A 		vmov	r3, s14	@ int
 228              	.LVL29:
ARM GAS  C:\msys64\tmp\ccczchWq.s 			page 5


 229              		.loc 2 442 0
 230 0100 802B     		cmp	r3, #128
 231 0102 04D9     		bls	.L14
 232 0104 03F07F02 		and	r2, r3, #127
 233 0108 C2F18002 		rsb	r2, r2, #128
 234              	.LVL30:
 235 010c 09E0     		b	.L15
 236              	.LVL31:
 237              	.L14:
 238              		.loc 2 443 0
 239 010e 7E2B     		cmp	r3, #126
 240 0110 03D8     		bhi	.L16
 241 0112 581C     		adds	r0, r3, #1
 242              	.LVL32:
 243 0114 17EE102A 		vmov	r2, s14	@ int
 244 0118 08E0     		b	.L17
 245              	.LVL33:
 246              	.L16:
 247 011a 7F2B     		cmp	r3, #127
 248 011c 03D0     		beq	.L18
 249 011e 17EE102A 		vmov	r2, s14	@ int
 250              	.LVL34:
 251              	.L15:
 252 0122 501E     		subs	r0, r2, #1
 253              	.LVL35:
 254 0124 02E0     		b	.L17
 255              	.LVL36:
 256              	.L18:
 257 0126 17EE102A 		vmov	r2, s14	@ int
 258 012a 8020     		movs	r0, #128
 259              	.LVL37:
 260              	.L17:
 261              	.LBB88:
 262              	.LBB89:
 263              		.loc 3 826 0
 264 012c 07EE103A 		vmov	s14, r3	@ int
 265              	.LBE89:
 266              	.LBE88:
 267              		.loc 2 444 0
 268 0130 1449     		ldr	r1, .L22+12
 269              	.LBB92:
 270              	.LBB90:
 271              		.loc 3 826 0
 272 0132 B8EE477A 		vcvt.f32.u32	s14, s14
 273              	.LBE90:
 274              	.LBE92:
 275              		.loc 2 444 0
 276 0136 01EB8202 		add	r2, r1, r2, lsl #2
 277              	.LVL38:
 278 013a 01EB8001 		add	r1, r1, r0, lsl #2
 279 013e 92ED000A 		vldr.32	s0, [r2]
 280              	.LVL39:
 281              	.LBB93:
 282              	.LBB91:
 283              		.loc 3 826 0
 284 0142 77EEC77A 		vsub.f32	s15, s15, s14
 285              	.LVL40:
ARM GAS  C:\msys64\tmp\ccczchWq.s 			page 6


 286 0146 91ED007A 		vldr.32	s14, [r1]
 287 014a 37EE407A 		vsub.f32	s14, s14, s0
 288 014e A7EE870A 		vfma.f32	s0, s15, s14
 289              	.LVL41:
 290              	.LBE91:
 291              	.LBE93:
 292              	.LBE87:
 293              	.LBE86:
 294              		.loc 1 41 0
 295 0152 7047     		bx	lr
 296              	.LVL42:
 297              	.L10:
 298              		.loc 1 43 0
 299 0154 F6EE007A 		vmov.f32	s15, #5.0e-1
 300 0158 B4EEE70A 		vcmpe.f32	s0, s15
 301 015c DFED0A7A 		vldr.32	s15, .L22+16
 302 0160 9FED0A0A 		vldr.32	s0, .L22+20
 303              	.LVL43:
 304 0164 F1EE10FA 		vmrs	APSR_nzcv, FPSCR
 305 0168 98BF     		it	ls
 306 016a B0EE670A 		vmovls.f32	s0, s15
 307 016e 7047     		bx	lr
 308              	.LVL44:
 309              	.L5:
 310              	.LVL45:
 311              		.loc 1 47 0
 312 0170 7047     		bx	lr
 313              	.LVL46:
 314              	.L19:
 315              		.loc 1 45 0
 316 0172 9FED070A 		vldr.32	s0, .L22+24
 317              	.LVL47:
 318              	.L4:
 319              		.loc 1 47 0
 320 0176 7047     		bx	lr
 321              	.L23:
 322              		.align	2
 323              	.L22:
 324 0178 00000000 		.word	wt_sine_lut_f
 325 017c 00008043 		.word	1132462080
 326 0180 00000000 		.word	wt_saw_lut_f
 327 0184 00000000 		.word	wt_par_lut_f
 328 0188 CDCC4C3F 		.word	1061997773
 329 018c CDCC4CBF 		.word	-1085485875
 330 0190 00000000 		.word	0
 331              		.cfi_endproc
 332              	.LFE282:
 333              		.size	_Z3oscft, .-_Z3oscft
 334              		.align	1
 335              		.global	_Z13computePhasesffPlm
 336              		.thumb
 337              		.thumb_func
 338              		.type	_Z13computePhasesffPlm, %function
 339              	_Z13computePhasesffPlm:
 340              	.LFB283:
 341              		.loc 1 51 0
 342              		.cfi_startproc
ARM GAS  C:\msys64\tmp\ccczchWq.s 			page 7


 343              		@ args = 0, pretend = 0, frame = 0
 344              		@ frame_needed = 0, uses_anonymous_args = 0
 345              	.LVL48:
 346              	.LBB94:
 347              	.LBB95:
 348              		.loc 1 59 0
 349 0194 2C4B     		ldr	r3, .L37
 350              		.loc 1 74 0
 351 0196 9FED2D4A 		vldr.32	s8, .L37+4
 352 019a D3ED025A 		vldr.32	s11, [r3, #8]
 353 019e 93ED036A 		vldr.32	s12, [r3, #12]
 354              	.LBE95:
 355              	.LBE94:
 356              		.loc 1 51 0
 357 01a2 2DE9F041 		push	{r4, r5, r6, r7, r8, lr}
 358              		.cfi_def_cfa_offset 24
 359              		.cfi_offset 4, -24
 360              		.cfi_offset 5, -20
 361              		.cfi_offset 6, -16
 362              		.cfi_offset 7, -12
 363              		.cfi_offset 8, -8
 364              		.cfi_offset 14, -4
 365              	.LBB99:
 366              	.LBB96:
 367              		.loc 1 59 0
 368 01a6 B3F81280 		ldrh	r8, [r3, #18]
 369              		.loc 1 68 0
 370 01aa 9E8A     		ldrh	r6, [r3, #20]
 371              	.LBE96:
 372              	.LBE99:
 373              		.loc 1 51 0
 374 01ac F0EE403A 		vmov.f32	s7, s0
 375 01b0 0546     		mov	r5, r0
 376              		.loc 1 52 0
 377 01b2 00EB8107 		add	r7, r0, r1, lsl #2
 378              	.LVL49:
 379 01b6 1C46     		mov	r4, r3
 380              	.LBB100:
 381              	.LBB97:
 382              		.loc 1 56 0
 383 01b8 F7EE004A 		vmov.f32	s9, #1.0e+0
 384              	.LVL50:
 385              	.L32:
 386              	.LBE97:
 387              		.loc 1 54 0
 388 01bc BD42     		cmp	r5, r7
 389 01be 3DD0     		beq	.L25
 390              	.LVL51:
 391              	.LBB98:
 392              		.loc 1 56 0
 393 01c0 F5EEC05A 		vcmpe.f32	s11, #0
 394 01c4 F1EE10FA 		vmrs	APSR_nzcv, FPSCR
 395 01c8 8ABF     		itet	hi
 396 01ca BCEEE50A 		vcvthi.u32.f32	s0, s11
 397 01ce 34EEE50A 		vsubls.f32	s0, s9, s11
 398 01d2 B8EE400A 		vcvthi.f32.u32	s0, s0
 399              		.loc 1 59 0
ARM GAS  C:\msys64\tmp\ccczchWq.s 			page 8


 400 01d6 4046     		mov	r0, r8
 401              		.loc 1 56 0
 402 01d8 88BF     		it	hi
 403 01da 35EEC00A 		vsubhi.f32	s0, s11, s0
 404              	.LVL52:
 405              		.loc 1 59 0
 406 01de FFF7FEFF 		bl	_Z3oscft
 407              	.LVL53:
 408              		.loc 1 65 0
 409 01e2 B5EEC06A 		vcmpe.f32	s12, #0
 410 01e6 F1EE10FA 		vmrs	APSR_nzcv, FPSCR
 411              		.loc 1 61 0
 412 01ea 73EEA55A 		vadd.f32	s11, s7, s11
 413              		.loc 1 59 0
 414 01ee B0EE405A 		vmov.f32	s10, s0
 415              	.LVL54:
 416              		.loc 1 65 0
 417 01f2 88BF     		it	hi
 418 01f4 BCEEC60A 		vcvthi.u32.f32	s0, s12
 419              	.LVL55:
 420              		.loc 1 62 0
 421 01f8 FCEEE57A 		vcvt.u32.f32	s15, s11
 422              		.loc 1 65 0
 423 01fc 88BF     		it	hi
 424 01fe B8EE400A 		vcvthi.f32.u32	s0, s0
 425              		.loc 1 62 0
 426 0202 F8EE677A 		vcvt.f32.u32	s15, s15
 427              		.loc 1 65 0
 428 0206 94BF     		ite	ls
 429 0208 34EEC60A 		vsubls.f32	s0, s9, s12
 430 020c 36EE400A 		vsubhi.f32	s0, s12, s0
 431              		.loc 1 68 0
 432 0210 3046     		mov	r0, r6
 433              		.loc 1 62 0
 434 0212 75EEE75A 		vsub.f32	s11, s11, s15
 435              	.LVL56:
 436              		.loc 1 68 0
 437 0216 FFF7FEFF 		bl	_Z3oscft
 438              	.LVL57:
 439              		.loc 1 70 0
 440 021a 36EE206A 		vadd.f32	s12, s12, s1
 441              		.loc 1 74 0
 442 021e 35EE000A 		vadd.f32	s0, s10, s0
 443              	.LVL58:
 444              		.loc 1 71 0
 445 0222 FCEEC67A 		vcvt.u32.f32	s15, s12
 446              		.loc 1 74 0
 447 0226 20EE040A 		vmul.f32	s0, s0, s8
 448              		.loc 1 71 0
 449 022a F8EE677A 		vcvt.f32.u32	s15, s15
 450              		.loc 1 74 0
 451 022e BDEEC00A 		vcvt.s32.f32	s0, s0
 452              		.loc 1 71 0
 453 0232 36EE676A 		vsub.f32	s12, s12, s15
 454              		.loc 1 74 0
 455 0236 A5EC010A 		vstmia.32	r5!, {s0}	@ int
 456              	.LVL59:
ARM GAS  C:\msys64\tmp\ccczchWq.s 			page 9


 457              	.LBE98:
 458              		.loc 1 54 0
 459 023a BFE7     		b	.L32
 460              	.LVL60:
 461              	.L25:
 462 023c C4ED025A 		vstr.32	s11, [r4, #8]
 463 0240 84ED036A 		vstr.32	s12, [r4, #12]
 464              	.LBE100:
 465              		.loc 1 77 0
 466 0244 BDE8F081 		pop	{r4, r5, r6, r7, r8, pc}
 467              	.LVL61:
 468              	.L38:
 469              		.align	2
 470              	.L37:
 471 0248 00000000 		.word	.LANCHOR0
 472 024c 0000004F 		.word	1325400064
 473              		.cfi_endproc
 474              	.LFE283:
 475              		.size	_Z13computePhasesffPlm, .-_Z13computePhasesffPlm
 476              		.align	1
 477              		.global	_hook_cycle
 478              		.thumb
 479              		.thumb_func
 480              		.type	_hook_cycle, %function
 481              	_hook_cycle:
 482              	.LFB284:
 483              		.loc 1 83 0
 484              		.cfi_startproc
 485              		@ args = 0, pretend = 0, frame = 0
 486              		@ frame_needed = 0, uses_anonymous_args = 0
 487              		@ link register save eliminated.
 488              	.LVL62:
 489 0250 30B4     		push	{r4, r5}
 490              		.cfi_def_cfa_offset 8
 491              		.cfi_offset 4, -8
 492              		.cfi_offset 5, -4
 493              		.loc 1 83 0
 494 0252 0C46     		mov	r4, r1
 495              		.loc 1 84 0
 496 0254 8188     		ldrh	r1, [r0, #4]
 497              	.LVL63:
 498              	.LBB101:
 499              	.LBB102:
 500              	.LBB103:
 501              	.LBB104:
 502              		.loc 2 115 0
 503 0256 2D4D     		ldr	r5, .L52
 504              	.LBE104:
 505              	.LBE103:
 506              		.loc 2 128 0
 507 0258 DFED2D7A 		vldr.32	s15, .L52+4
 508              		.loc 2 130 0
 509 025c 9FED2D6A 		vldr.32	s12, .L52+8
 510              	.LBE102:
 511              	.LBE101:
 512              		.loc 1 84 0
 513 0260 0812     		asrs	r0, r1, #8
ARM GAS  C:\msys64\tmp\ccczchWq.s 			page 10


 514              	.LVL64:
 515 0262 C3B2     		uxtb	r3, r0
 516 0264 C9B2     		uxtb	r1, r1
 517 0266 07EE101A 		vmov	s14, r1	@ int
 518              	.LVL65:
 519              	.LBB137:
 520              	.LBB131:
 521              		.loc 2 126 0
 522 026a 591C     		adds	r1, r3, #1
 523              	.LVL66:
 524              	.LBB111:
 525              	.LBB107:
 526              	.LBB105:
 527              	.LBB106:
 528              		.file 4 "../inc/utils/int_math.h"
 529              		.loc 4 85 0
 530 026c 9628     		cmp	r0, #150
 531              	.LBE106:
 532              	.LBE105:
 533              	.LBE107:
 534              	.LBE111:
 535              		.loc 2 126 0
 536 026e C9B2     		uxtb	r1, r1
 537              	.LBB112:
 538              	.LBB108:
 539              		.loc 2 115 0
 540 0270 C8BF     		it	gt
 541 0272 9720     		movgt	r0, #151
 542              	.LVL67:
 543              	.LBE108:
 544              	.LBE112:
 545              	.LBB113:
 546              	.LBB114:
 547              	.LBB115:
 548              	.LBB116:
 549              		.loc 4 85 0
 550 0274 9629     		cmp	r1, #150
 551              	.LBE116:
 552              	.LBE115:
 553              		.loc 2 115 0
 554 0276 88BF     		it	hi
 555 0278 9721     		movhi	r1, #151
 556              	.LBE114:
 557              	.LBE113:
 558              		.loc 2 128 0
 559 027a B8EEC77A 		vcvt.f32.s32	s14, s14
 560              	.LVL68:
 561              	.LBB118:
 562              	.LBB109:
 563              		.loc 2 115 0
 564 027e 05EB8000 		add	r0, r5, r0, lsl #2
 565              	.LBE109:
 566              	.LBE118:
 567              	.LBB119:
 568              	.LBB117:
 569 0282 05EB8101 		add	r1, r5, r1, lsl #2
 570              	.LBE117:
ARM GAS  C:\msys64\tmp\ccczchWq.s 			page 11


 571              	.LBE119:
 572              	.LBB120:
 573              	.LBB110:
 574 0286 90ED000A 		vldr.32	s0, [r0]
 575              	.LVL69:
 576              	.LBE110:
 577              	.LBE120:
 578              	.LBE131:
 579              	.LBE137:
 580              		.loc 1 84 0
 581 028a 2348     		ldr	r0, .L52+12
 582              	.LBB138:
 583              	.LBB132:
 584              		.loc 2 128 0
 585 028c 27EE277A 		vmul.f32	s14, s14, s15
 586              	.LVL70:
 587              	.LBB121:
 588              	.LBB122:
 589              		.loc 3 826 0
 590 0290 D1ED007A 		vldr.32	s15, [r1]
 591              	.LBE122:
 592              	.LBE121:
 593              	.LBE132:
 594              	.LBE138:
 595              		.loc 1 85 0
 596 0294 017C     		ldrb	r1, [r0, #16]	@ zero_extendqisi2
 597              	.LBB139:
 598              	.LBB133:
 599              	.LBB125:
 600              	.LBB123:
 601              		.loc 3 826 0
 602 0296 77EEC07A 		vsub.f32	s15, s15, s0
 603              	.LBE123:
 604              	.LBE125:
 605              	.LBE133:
 606              	.LBE139:
 607              		.loc 1 85 0
 608 029a 0B44     		add	r3, r3, r1
 609              	.LVL71:
 610              	.LBB140:
 611              	.LBB134:
 612              	.LBB126:
 613              	.LBB124:
 614              		.loc 3 826 0
 615 029c A7EE270A 		vfma.f32	s0, s14, s15
 616              	.LVL72:
 617              	.LBE124:
 618              	.LBE126:
 619              	.LBE134:
 620              	.LBE140:
 621              		.loc 1 85 0
 622 02a0 DBB2     		uxtb	r3, r3
 623              	.LBB141:
 624              	.LBB135:
 625              	.LBB127:
 626              	.LBB128:
 627              	.LBB129:
ARM GAS  C:\msys64\tmp\ccczchWq.s 			page 12


 628              	.LBB130:
 629              		.loc 3 193 0
 630 02a2 DFED1E7A 		vldr.32	s15, .L52+16
 631 02a6 B4EEE70A 		vcmpe.f32	s0, s15
 632 02aa F1EE10FA 		vmrs	APSR_nzcv, FPSCR
 633 02ae A8BF     		it	ge
 634 02b0 B0EE670A 		vmovge.f32	s0, s15
 635              	.LVL73:
 636              	.LBE130:
 637              	.LBE129:
 638              	.LBE128:
 639              	.LBE127:
 640              	.LBE135:
 641              	.LBE141:
 642              	.LBB142:
 643              	.LBB143:
 644              	.LBB144:
 645              	.LBB145:
 646              	.LBB146:
 647              	.LBB147:
 648              		.loc 4 85 0
 649 02b4 962B     		cmp	r3, #150
 650              	.LBE147:
 651              	.LBE146:
 652              		.loc 2 115 0
 653 02b6 98BF     		it	ls
 654 02b8 1946     		movls	r1, r3
 655              	.LBE145:
 656              	.LBE144:
 657              		.loc 2 126 0
 658 02ba 03F10103 		add	r3, r3, #1
 659 02be DBB2     		uxtb	r3, r3
 660              	.LBB151:
 661              	.LBB148:
 662              		.loc 2 115 0
 663 02c0 88BF     		it	hi
 664 02c2 9721     		movhi	r1, #151
 665              	.LBE148:
 666              	.LBE151:
 667              	.LBB152:
 668              	.LBB153:
 669              	.LBB154:
 670              	.LBB155:
 671              		.loc 4 85 0
 672 02c4 962B     		cmp	r3, #150
 673              	.LBE155:
 674              	.LBE154:
 675              		.loc 2 115 0
 676 02c6 88BF     		it	hi
 677 02c8 9723     		movhi	r3, #151
 678              	.LBE153:
 679              	.LBE152:
 680              	.LBB157:
 681              	.LBB149:
 682 02ca 05EB8101 		add	r1, r5, r1, lsl #2
 683              	.LBE149:
 684              	.LBE157:
ARM GAS  C:\msys64\tmp\ccczchWq.s 			page 13


 685              	.LBB158:
 686              	.LBB156:
 687 02ce 05EB8303 		add	r3, r5, r3, lsl #2
 688              	.LBE156:
 689              	.LBE158:
 690              	.LBB159:
 691              	.LBB150:
 692 02d2 D1ED000A 		vldr.32	s1, [r1]
 693              	.LBE150:
 694              	.LBE159:
 695              	.LBB160:
 696              	.LBB161:
 697              		.loc 3 826 0
 698 02d6 D3ED006A 		vldr.32	s13, [r3]
 699 02da 76EEE06A 		vsub.f32	s13, s13, s1
 700              	.LBE161:
 701              	.LBE160:
 702              	.LBE143:
 703              	.LBE142:
 704              	.LBB170:
 705              	.LBB136:
 706              		.loc 2 130 0
 707 02de 20EE060A 		vmul.f32	s0, s0, s12
 708              	.LVL74:
 709              	.LBE136:
 710              	.LBE170:
 711              	.LBB171:
 712              	.LBB168:
 713              	.LBB163:
 714              	.LBB162:
 715              		.loc 3 826 0
 716 02e2 E6EE870A 		vfma.f32	s1, s13, s14
 717              	.LBE162:
 718              	.LBE163:
 719              	.LBE168:
 720              	.LBE171:
 721              		.loc 1 89 0
 722 02e6 1146     		mov	r1, r2
 723              		.loc 1 84 0
 724 02e8 80ED000A 		vstr.32	s0, [r0]
 725              	.LVL75:
 726              	.LBB172:
 727              	.LBB169:
 728              	.LBB164:
 729              	.LBB165:
 730              	.LBB166:
 731              	.LBB167:
 732              		.loc 3 193 0
 733 02ec F4EEE70A 		vcmpe.f32	s1, s15
 734 02f0 F1EE10FA 		vmrs	APSR_nzcv, FPSCR
 735 02f4 B8BF     		it	lt
 736 02f6 F0EE607A 		vmovlt.f32	s15, s1
 737              	.LVL76:
 738              	.LBE167:
 739              	.LBE166:
 740              	.LBE165:
 741              	.LBE164:
ARM GAS  C:\msys64\tmp\ccczchWq.s 			page 14


 742              		.loc 2 130 0
 743 02fa 67EE860A 		vmul.f32	s1, s15, s12
 744              	.LVL77:
 745              	.LBE169:
 746              	.LBE172:
 747              		.loc 1 85 0
 748 02fe C0ED010A 		vstr.32	s1, [r0, #4]
 749              	.LVL78:
 750              		.loc 1 89 0
 751 0302 2046     		mov	r0, r4
 752              		.loc 1 90 0
 753 0304 30BC     		pop	{r4, r5}
 754              		.cfi_restore 5
 755              		.cfi_restore 4
 756              		.cfi_def_cfa_offset 0
 757              	.LVL79:
 758              		.loc 1 89 0
 759 0306 FFF7FEBF 		b	_Z13computePhasesffPlm
 760              	.LVL80:
 761              	.L53:
 762 030a 00BF     		.align	2
 763              	.L52:
 764 030c 00000000 		.word	midi_to_hz_lut_f
 765 0310 8180803B 		.word	998277249
 766 0314 3EC3AE37 		.word	934200126
 767 0318 00000000 		.word	.LANCHOR0
 768 031c 49FFB846 		.word	1186529097
 769              		.cfi_endproc
 770              	.LFE284:
 771              		.size	_hook_cycle, .-_hook_cycle
 772              		.align	1
 773              		.global	_hook_on
 774              		.thumb
 775              		.thumb_func
 776              		.type	_hook_on, %function
 777              	_hook_on:
 778              	.LFB289:
 779              		.cfi_startproc
 780              		@ args = 0, pretend = 0, frame = 0
 781              		@ frame_needed = 0, uses_anonymous_args = 0
 782              		@ link register save eliminated.
 783 0320 7047     		bx	lr
 784              		.cfi_endproc
 785              	.LFE289:
 786              		.size	_hook_on, .-_hook_on
 787              		.align	1
 788              		.global	_hook_off
 789              		.thumb
 790              		.thumb_func
 791              		.type	_hook_off, %function
 792              	_hook_off:
 793              	.LFB286:
 794              		.loc 1 99 0
 795              		.cfi_startproc
 796              		@ args = 0, pretend = 0, frame = 0
 797              		@ frame_needed = 0, uses_anonymous_args = 0
 798              		@ link register save eliminated.
ARM GAS  C:\msys64\tmp\ccczchWq.s 			page 15


 799              	.LVL81:
 800 0322 7047     		bx	lr
 801              		.cfi_endproc
 802              	.LFE286:
 803              		.size	_hook_off, .-_hook_off
 804              		.align	1
 805              		.global	_hook_param
 806              		.thumb
 807              		.thumb_func
 808              		.type	_hook_param, %function
 809              	_hook_param:
 810              	.LFB287:
 811              		.loc 1 105 0
 812              		.cfi_startproc
 813              		@ args = 0, pretend = 0, frame = 0
 814              		@ frame_needed = 0, uses_anonymous_args = 0
 815              		@ link register save eliminated.
 816              	.LVL82:
 817              		.loc 1 108 0
 818 0324 0128     		cmp	r0, #1
 819 0326 06D0     		beq	.L58
 820 0328 02D3     		bcc	.L59
 821 032a 0228     		cmp	r0, #2
 822 032c 06D0     		beq	.L60
 823 032e 7047     		bx	lr
 824              	.L59:
 825              		.loc 1 110 0
 826 0330 044B     		ldr	r3, .L61
 827 0332 1982     		strh	r1, [r3, #16]	@ movhi
 828              		.loc 1 111 0
 829 0334 7047     		bx	lr
 830              	.L58:
 831              		.loc 1 113 0
 832 0336 034B     		ldr	r3, .L61
 833 0338 5982     		strh	r1, [r3, #18]	@ movhi
 834              		.loc 1 114 0
 835 033a 7047     		bx	lr
 836              	.L60:
 837              		.loc 1 116 0
 838 033c 014B     		ldr	r3, .L61
 839 033e 9982     		strh	r1, [r3, #20]	@ movhi
 840 0340 7047     		bx	lr
 841              	.L62:
 842 0342 00BF     		.align	2
 843              	.L61:
 844 0344 00000000 		.word	.LANCHOR0
 845              		.cfi_endproc
 846              	.LFE287:
 847              		.size	_hook_param, .-_hook_param
 848              		.bss
 849              		.align	2
 850              		.set	.LANCHOR0,. + 0
 851              		.type	_ZL7s_state, %object
 852              		.size	_ZL7s_state, 24
 853              	_ZL7s_state:
 854 0000 00000000 		.space	24
 854      00000000 
ARM GAS  C:\msys64\tmp\ccczchWq.s 			page 16


 854      00000000 
 854      00000000 
 854      00000000 
 855              		.text
 856              	.Letext0:
 857              		.file 5 "c:\\users\\guillaume\\documents\\cpp\\logue-sdk\\tools\\gcc\\gcc-arm-none-eabi-5_4-2016q3
 858              		.file 6 "c:\\users\\guillaume\\documents\\cpp\\logue-sdk\\tools\\gcc\\gcc-arm-none-eabi-5_4-2016q3
 859              		.file 7 "../../ext/CMSIS/CMSIS/Include/arm_math.h"
 860              		.file 8 "../inc/userosc.h"
 861              		.file 9 "../inc/userprg.h"
 862              		.file 10 "../inc/dsp/biquad.hpp"
 863              		.section	.debug_info,"",%progbits
 864              	.Ldebug_info0:
 865 0000 BA0B0000 		.4byte	0xbba
 866 0004 0400     		.2byte	0x4
 867 0006 00000000 		.4byte	.Ldebug_abbrev0
 868 000a 04       		.byte	0x4
 869 000b 01       		.uleb128 0x1
 870 000c E7020000 		.4byte	.LASF91
 871 0010 04       		.byte	0x4
 872 0011 D5000000 		.4byte	.LASF92
 873 0015 DB010000 		.4byte	.LASF93
 874 0019 00000000 		.4byte	.Ltext0
 875 001d 48030000 		.4byte	.Letext0-.Ltext0
 876 0021 00000000 		.4byte	.Ldebug_line0
 877 0025 02       		.uleb128 0x2
 878 0026 04       		.byte	0x4
 879 0027 04       		.byte	0x4
 880 0028 D3020000 		.4byte	.LASF0
 881 002c 02       		.uleb128 0x2
 882 002d 04       		.byte	0x4
 883 002e 07       		.byte	0x7
 884 002f 1D010000 		.4byte	.LASF1
 885 0033 02       		.uleb128 0x2
 886 0034 01       		.byte	0x1
 887 0035 06       		.byte	0x6
 888 0036 97000000 		.4byte	.LASF2
 889 003a 03       		.uleb128 0x3
 890 003b 8B040000 		.4byte	.LASF5
 891 003f 05       		.byte	0x5
 892 0040 1D       		.byte	0x1d
 893 0041 45000000 		.4byte	0x45
 894 0045 02       		.uleb128 0x2
 895 0046 01       		.byte	0x1
 896 0047 08       		.byte	0x8
 897 0048 23040000 		.4byte	.LASF3
 898 004c 02       		.uleb128 0x2
 899 004d 02       		.byte	0x2
 900 004e 05       		.byte	0x5
 901 004f 35020000 		.4byte	.LASF4
 902 0053 03       		.uleb128 0x3
 903 0054 CC040000 		.4byte	.LASF6
 904 0058 05       		.byte	0x5
 905 0059 2B       		.byte	0x2b
 906 005a 5E000000 		.4byte	0x5e
 907 005e 02       		.uleb128 0x2
 908 005f 02       		.byte	0x2
ARM GAS  C:\msys64\tmp\ccczchWq.s 			page 17


 909 0060 07       		.byte	0x7
 910 0061 AC010000 		.4byte	.LASF7
 911 0065 03       		.uleb128 0x3
 912 0066 01050000 		.4byte	.LASF8
 913 006a 05       		.byte	0x5
 914 006b 3F       		.byte	0x3f
 915 006c 70000000 		.4byte	0x70
 916 0070 02       		.uleb128 0x2
 917 0071 04       		.byte	0x4
 918 0072 05       		.byte	0x5
 919 0073 CC000000 		.4byte	.LASF9
 920 0077 03       		.uleb128 0x3
 921 0078 0C010000 		.4byte	.LASF10
 922 007c 05       		.byte	0x5
 923 007d 41       		.byte	0x41
 924 007e 82000000 		.4byte	0x82
 925 0082 02       		.uleb128 0x2
 926 0083 04       		.byte	0x4
 927 0084 07       		.byte	0x7
 928 0085 41010000 		.4byte	.LASF11
 929 0089 02       		.uleb128 0x2
 930 008a 08       		.byte	0x8
 931 008b 05       		.byte	0x5
 932 008c 89000000 		.4byte	.LASF12
 933 0090 02       		.uleb128 0x2
 934 0091 08       		.byte	0x8
 935 0092 07       		.byte	0x7
 936 0093 46000000 		.4byte	.LASF13
 937 0097 04       		.uleb128 0x4
 938 0098 04       		.byte	0x4
 939 0099 05       		.byte	0x5
 940 009a 696E7400 		.ascii	"int\000"
 941 009e 03       		.uleb128 0x3
 942 009f BC050000 		.4byte	.LASF14
 943 00a3 06       		.byte	0x6
 944 00a4 18       		.byte	0x18
 945 00a5 3A000000 		.4byte	0x3a
 946 00a9 03       		.uleb128 0x3
 947 00aa E8000000 		.4byte	.LASF15
 948 00ae 06       		.byte	0x6
 949 00af 24       		.byte	0x24
 950 00b0 53000000 		.4byte	0x53
 951 00b4 03       		.uleb128 0x3
 952 00b5 1B040000 		.4byte	.LASF16
 953 00b9 06       		.byte	0x6
 954 00ba 2C       		.byte	0x2c
 955 00bb 65000000 		.4byte	0x65
 956 00bf 03       		.uleb128 0x3
 957 00c0 82040000 		.4byte	.LASF17
 958 00c4 06       		.byte	0x6
 959 00c5 30       		.byte	0x30
 960 00c6 77000000 		.4byte	0x77
 961 00ca 02       		.uleb128 0x2
 962 00cb 08       		.byte	0x8
 963 00cc 04       		.byte	0x4
 964 00cd A6040000 		.4byte	.LASF18
 965 00d1 05       		.uleb128 0x5
ARM GAS  C:\msys64\tmp\ccczchWq.s 			page 18


 966 00d2 47020000 		.4byte	.LASF94
 967 00d6 02       		.uleb128 0x2
 968 00d7 04       		.byte	0x4
 969 00d8 07       		.byte	0x7
 970 00d9 8C020000 		.4byte	.LASF19
 971 00dd 02       		.uleb128 0x2
 972 00de 01       		.byte	0x1
 973 00df 08       		.byte	0x8
 974 00e0 C1040000 		.4byte	.LASF20
 975 00e4 02       		.uleb128 0x2
 976 00e5 08       		.byte	0x8
 977 00e6 04       		.byte	0x4
 978 00e7 F1000000 		.4byte	.LASF21
 979 00eb 06       		.uleb128 0x6
 980 00ec 7C040000 		.4byte	.LASF22
 981 00f0 07       		.byte	0x7
 982 00f1 8D01     		.2byte	0x18d
 983 00f3 B4000000 		.4byte	0xb4
 984 00f7 07       		.uleb128 0x7
 985 00f8 04       		.byte	0x4
 986 00f9 EB000000 		.4byte	0xeb
 987 00fd 07       		.uleb128 0x7
 988 00fe 04       		.byte	0x4
 989 00ff 03010000 		.4byte	0x103
 990 0103 08       		.uleb128 0x8
 991 0104 EB000000 		.4byte	0xeb
 992 0108 07       		.uleb128 0x7
 993 0109 04       		.byte	0x4
 994 010a B4000000 		.4byte	0xb4
 995 010e 09       		.uleb128 0x9
 996 010f 01       		.byte	0x1
 997 0110 45000000 		.4byte	0x45
 998 0114 09       		.byte	0x9
 999 0115 35       		.byte	0x35
 1000 0116 3F010000 		.4byte	0x13f
 1001 011a 0A       		.uleb128 0xa
 1002 011b 96050000 		.4byte	.LASF23
 1003 011f 00       		.byte	0
 1004 0120 0A       		.uleb128 0xa
 1005 0121 0D000000 		.4byte	.LASF24
 1006 0125 01       		.byte	0x1
 1007 0126 0A       		.uleb128 0xa
 1008 0127 4A040000 		.4byte	.LASF25
 1009 012b 02       		.byte	0x2
 1010 012c 0A       		.uleb128 0xa
 1011 012d 36040000 		.4byte	.LASF26
 1012 0131 03       		.byte	0x3
 1013 0132 0A       		.uleb128 0xa
 1014 0133 53010000 		.4byte	.LASF27
 1015 0137 04       		.byte	0x4
 1016 0138 0A       		.uleb128 0xa
 1017 0139 C8010000 		.4byte	.LASF28
 1018 013d 05       		.byte	0x5
 1019 013e 00       		.byte	0
 1020 013f 0B       		.uleb128 0xb
 1021 0140 7D020000 		.4byte	.LASF45
 1022 0144 10       		.byte	0x10
ARM GAS  C:\msys64\tmp\ccczchWq.s 			page 19


 1023 0145 08       		.byte	0x8
 1024 0146 3C       		.byte	0x3c
 1025 0147 88010000 		.4byte	0x188
 1026 014b 0C       		.uleb128 0xc
 1027 014c F8000000 		.4byte	.LASF29
 1028 0150 08       		.byte	0x8
 1029 0151 3E       		.byte	0x3e
 1030 0152 B4000000 		.4byte	0xb4
 1031 0156 00       		.byte	0
 1032 0157 0C       		.uleb128 0xc
 1033 0158 BF020000 		.4byte	.LASF30
 1034 015c 08       		.byte	0x8
 1035 015d 40       		.byte	0x40
 1036 015e A9000000 		.4byte	0xa9
 1037 0162 04       		.byte	0x4
 1038 0163 0C       		.uleb128 0xc
 1039 0164 AB050000 		.4byte	.LASF31
 1040 0168 08       		.byte	0x8
 1041 0169 42       		.byte	0x42
 1042 016a A9000000 		.4byte	0xa9
 1043 016e 06       		.byte	0x6
 1044 016f 0C       		.uleb128 0xc
 1045 0170 95020000 		.4byte	.LASF32
 1046 0174 08       		.byte	0x8
 1047 0175 44       		.byte	0x44
 1048 0176 A9000000 		.4byte	0xa9
 1049 017a 08       		.byte	0x8
 1050 017b 0C       		.uleb128 0xc
 1051 017c 07060000 		.4byte	.LASF33
 1052 0180 08       		.byte	0x8
 1053 0181 45       		.byte	0x45
 1054 0182 88010000 		.4byte	0x188
 1055 0186 0A       		.byte	0xa
 1056 0187 00       		.byte	0
 1057 0188 0D       		.uleb128 0xd
 1058 0189 A9000000 		.4byte	0xa9
 1059 018d 98010000 		.4byte	0x198
 1060 0191 0E       		.uleb128 0xe
 1061 0192 D6000000 		.4byte	0xd6
 1062 0196 02       		.byte	0x2
 1063 0197 00       		.byte	0
 1064 0198 03       		.uleb128 0x3
 1065 0199 24020000 		.4byte	.LASF34
 1066 019d 08       		.byte	0x8
 1067 019e 46       		.byte	0x46
 1068 019f 3F010000 		.4byte	0x13f
 1069 01a3 0F       		.uleb128 0xf
 1070 01a4 01       		.byte	0x1
 1071 01a5 45000000 		.4byte	0x45
 1072 01a9 08       		.byte	0x8
 1073 01aa 4B       		.byte	0x4b
 1074 01ab EB040000 		.4byte	.LASF95
 1075 01af EA010000 		.4byte	0x1ea
 1076 01b3 0A       		.uleb128 0xa
 1077 01b4 0B050000 		.4byte	.LASF35
 1078 01b8 00       		.byte	0
 1079 01b9 0A       		.uleb128 0xa
ARM GAS  C:\msys64\tmp\ccczchWq.s 			page 20


 1080 01ba 20050000 		.4byte	.LASF36
 1081 01be 01       		.byte	0x1
 1082 01bf 0A       		.uleb128 0xa
 1083 01c0 35050000 		.4byte	.LASF37
 1084 01c4 02       		.byte	0x2
 1085 01c5 0A       		.uleb128 0xa
 1086 01c6 4A050000 		.4byte	.LASF38
 1087 01ca 03       		.byte	0x3
 1088 01cb 0A       		.uleb128 0xa
 1089 01cc 5F050000 		.4byte	.LASF39
 1090 01d0 04       		.byte	0x4
 1091 01d1 0A       		.uleb128 0xa
 1092 01d2 74050000 		.4byte	.LASF40
 1093 01d6 05       		.byte	0x5
 1094 01d7 0A       		.uleb128 0xa
 1095 01d8 2A010000 		.4byte	.LASF41
 1096 01dc 06       		.byte	0x6
 1097 01dd 0A       		.uleb128 0xa
 1098 01de FF030000 		.4byte	.LASF42
 1099 01e2 07       		.byte	0x7
 1100 01e3 0A       		.uleb128 0xa
 1101 01e4 E2050000 		.4byte	.LASF43
 1102 01e8 08       		.byte	0x8
 1103 01e9 00       		.byte	0
 1104 01ea 03       		.uleb128 0x3
 1105 01eb 75000000 		.4byte	.LASF44
 1106 01ef 08       		.byte	0x8
 1107 01f0 5D       		.byte	0x5d
 1108 01f1 A3010000 		.4byte	0x1a3
 1109 01f5 07       		.uleb128 0x7
 1110 01f6 04       		.byte	0x4
 1111 01f7 FB010000 		.4byte	0x1fb
 1112 01fb 08       		.uleb128 0x8
 1113 01fc 98010000 		.4byte	0x198
 1114 0200 10       		.uleb128 0x10
 1115 0201 64737000 		.ascii	"dsp\000"
 1116 0205 0A       		.byte	0xa
 1117 0206 31       		.byte	0x31
 1118 0207 0B       		.uleb128 0xb
 1119 0208 C6040000 		.4byte	.LASF46
 1120 020c 18       		.byte	0x18
 1121 020d 01       		.byte	0x1
 1122 020e 06       		.byte	0x6
 1123 020f 66020000 		.4byte	0x266
 1124 0213 11       		.uleb128 0x11
 1125 0214 773000   		.ascii	"w0\000"
 1126 0217 01       		.byte	0x1
 1127 0218 07       		.byte	0x7
 1128 0219 25000000 		.4byte	0x25
 1129 021d 00       		.byte	0
 1130 021e 11       		.uleb128 0x11
 1131 021f 773100   		.ascii	"w1\000"
 1132 0222 01       		.byte	0x1
 1133 0223 08       		.byte	0x8
 1134 0224 25000000 		.4byte	0x25
 1135 0228 04       		.byte	0x4
 1136 0229 0C       		.uleb128 0xc
ARM GAS  C:\msys64\tmp\ccczchWq.s 			page 21


 1137 022a D9020000 		.4byte	.LASF47
 1138 022e 01       		.byte	0x1
 1139 022f 09       		.byte	0x9
 1140 0230 25000000 		.4byte	0x25
 1141 0234 08       		.byte	0x8
 1142 0235 0C       		.uleb128 0xc
 1143 0236 E0020000 		.4byte	.LASF48
 1144 023a 01       		.byte	0x1
 1145 023b 0A       		.byte	0xa
 1146 023c 25000000 		.4byte	0x25
 1147 0240 0C       		.byte	0xc
 1148 0241 0C       		.uleb128 0xc
 1149 0242 65010000 		.4byte	.LASF49
 1150 0246 01       		.byte	0x1
 1151 0247 0B       		.byte	0xb
 1152 0248 A9000000 		.4byte	0xa9
 1153 024c 10       		.byte	0x10
 1154 024d 0C       		.uleb128 0xc
 1155 024e 71020000 		.4byte	.LASF50
 1156 0252 01       		.byte	0x1
 1157 0253 0C       		.byte	0xc
 1158 0254 A9000000 		.4byte	0xa9
 1159 0258 12       		.byte	0x12
 1160 0259 0C       		.uleb128 0xc
 1161 025a 77020000 		.4byte	.LASF51
 1162 025e 01       		.byte	0x1
 1163 025f 0D       		.byte	0xd
 1164 0260 A9000000 		.4byte	0xa9
 1165 0264 14       		.byte	0x14
 1166 0265 00       		.byte	0
 1167 0266 03       		.uleb128 0x3
 1168 0267 C6040000 		.4byte	.LASF46
 1169 026b 01       		.byte	0x1
 1170 026c 0F       		.byte	0xf
 1171 026d 07020000 		.4byte	0x207
 1172 0271 12       		.uleb128 0x12
 1173 0272 16060000 		.4byte	.LASF52
 1174 0276 03       		.byte	0x3
 1175 0277 C0       		.byte	0xc0
 1176 0278 25000000 		.4byte	0x25
 1177 027c 03       		.byte	0x3
 1178 027d 9D020000 		.4byte	0x29d
 1179 0281 13       		.uleb128 0x13
 1180 0282 6100     		.ascii	"a\000"
 1181 0284 03       		.byte	0x3
 1182 0285 C0       		.byte	0xc0
 1183 0286 9D020000 		.4byte	0x29d
 1184 028a 13       		.uleb128 0x13
 1185 028b 6200     		.ascii	"b\000"
 1186 028d 03       		.byte	0x3
 1187 028e C0       		.byte	0xc0
 1188 028f 9D020000 		.4byte	0x29d
 1189 0293 13       		.uleb128 0x13
 1190 0294 6300     		.ascii	"c\000"
 1191 0296 03       		.byte	0x3
 1192 0297 C0       		.byte	0xc0
 1193 0298 9D020000 		.4byte	0x29d
ARM GAS  C:\msys64\tmp\ccczchWq.s 			page 22


 1194 029c 00       		.byte	0
 1195 029d 08       		.uleb128 0x8
 1196 029e 25000000 		.4byte	0x25
 1197 02a2 14       		.uleb128 0x14
 1198 02a3 00000000 		.4byte	.LASF53
 1199 02a7 03       		.byte	0x3
 1200 02a8 4901     		.2byte	0x149
 1201 02aa 25000000 		.4byte	0x25
 1202 02ae 03       		.byte	0x3
 1203 02af CA020000 		.4byte	0x2ca
 1204 02b3 15       		.uleb128 0x15
 1205 02b4 7800     		.ascii	"x\000"
 1206 02b6 03       		.byte	0x3
 1207 02b7 4901     		.2byte	0x149
 1208 02b9 9D020000 		.4byte	0x29d
 1209 02bd 15       		.uleb128 0x15
 1210 02be 6D617800 		.ascii	"max\000"
 1211 02c2 03       		.byte	0x3
 1212 02c3 4901     		.2byte	0x149
 1213 02c5 9D020000 		.4byte	0x29d
 1214 02c9 00       		.byte	0
 1215 02ca 12       		.uleb128 0x12
 1216 02cb B0000000 		.4byte	.LASF54
 1217 02cf 04       		.byte	0x4
 1218 02d0 54       		.byte	0x54
 1219 02d1 BF000000 		.4byte	0xbf
 1220 02d5 03       		.byte	0x3
 1221 02d6 ED020000 		.4byte	0x2ed
 1222 02da 13       		.uleb128 0x13
 1223 02db 7800     		.ascii	"x\000"
 1224 02dd 04       		.byte	0x4
 1225 02de 54       		.byte	0x54
 1226 02df ED020000 		.4byte	0x2ed
 1227 02e3 13       		.uleb128 0x13
 1228 02e4 6D00     		.ascii	"m\000"
 1229 02e6 04       		.byte	0x4
 1230 02e7 54       		.byte	0x54
 1231 02e8 ED020000 		.4byte	0x2ed
 1232 02ec 00       		.byte	0
 1233 02ed 08       		.uleb128 0x8
 1234 02ee BF000000 		.4byte	0xbf
 1235 02f2 14       		.uleb128 0x14
 1236 02f3 D7040000 		.4byte	.LASF55
 1237 02f7 03       		.byte	0x3
 1238 02f8 8501     		.2byte	0x185
 1239 02fa 25000000 		.4byte	0x25
 1240 02fe 03       		.byte	0x3
 1241 02ff 18030000 		.4byte	0x318
 1242 0303 15       		.uleb128 0x15
 1243 0304 7800     		.ascii	"x\000"
 1244 0306 03       		.byte	0x3
 1245 0307 8501     		.2byte	0x185
 1246 0309 9D020000 		.4byte	0x29d
 1247 030d 15       		.uleb128 0x15
 1248 030e 6D00     		.ascii	"m\000"
 1249 0310 03       		.byte	0x3
 1250 0311 8501     		.2byte	0x185
ARM GAS  C:\msys64\tmp\ccczchWq.s 			page 23


 1251 0313 9D020000 		.4byte	0x29d
 1252 0317 00       		.byte	0
 1253 0318 14       		.uleb128 0x14
 1254 0319 3F020000 		.4byte	.LASF56
 1255 031d 03       		.byte	0x3
 1256 031e 3903     		.2byte	0x339
 1257 0320 25000000 		.4byte	0x25
 1258 0324 03       		.byte	0x3
 1259 0325 4B030000 		.4byte	0x34b
 1260 0329 15       		.uleb128 0x15
 1261 032a 667200   		.ascii	"fr\000"
 1262 032d 03       		.byte	0x3
 1263 032e 3903     		.2byte	0x339
 1264 0330 9D020000 		.4byte	0x29d
 1265 0334 15       		.uleb128 0x15
 1266 0335 783000   		.ascii	"x0\000"
 1267 0338 03       		.byte	0x3
 1268 0339 3903     		.2byte	0x339
 1269 033b 9D020000 		.4byte	0x29d
 1270 033f 15       		.uleb128 0x15
 1271 0340 783100   		.ascii	"x1\000"
 1272 0343 03       		.byte	0x3
 1273 0344 3903     		.2byte	0x339
 1274 0346 9D020000 		.4byte	0x29d
 1275 034a 00       		.byte	0
 1276 034b 12       		.uleb128 0x12
 1277 034c 65020000 		.4byte	.LASF57
 1278 0350 02       		.byte	0x2
 1279 0351 72       		.byte	0x72
 1280 0352 25000000 		.4byte	0x25
 1281 0356 03       		.byte	0x3
 1282 0357 67030000 		.4byte	0x367
 1283 035b 16       		.uleb128 0x16
 1284 035c 31040000 		.4byte	.LASF58
 1285 0360 02       		.byte	0x2
 1286 0361 72       		.byte	0x72
 1287 0362 9E000000 		.4byte	0x9e
 1288 0366 00       		.byte	0
 1289 0367 12       		.uleb128 0x12
 1290 0368 D9050000 		.4byte	.LASF59
 1291 036c 02       		.byte	0x2
 1292 036d 9C       		.byte	0x9c
 1293 036e 25000000 		.4byte	0x25
 1294 0372 03       		.byte	0x3
 1295 0373 BE030000 		.4byte	0x3be
 1296 0377 13       		.uleb128 0x13
 1297 0378 7800     		.ascii	"x\000"
 1298 037a 02       		.byte	0x2
 1299 037b 9C       		.byte	0x9c
 1300 037c 25000000 		.4byte	0x25
 1301 0380 17       		.uleb128 0x17
 1302 0381 7000     		.ascii	"p\000"
 1303 0383 02       		.byte	0x2
 1304 0384 9D       		.byte	0x9d
 1305 0385 9D020000 		.4byte	0x29d
 1306 0389 17       		.uleb128 0x17
 1307 038a 78306600 		.ascii	"x0f\000"
ARM GAS  C:\msys64\tmp\ccczchWq.s 			page 24


 1308 038e 02       		.byte	0x2
 1309 038f A0       		.byte	0xa0
 1310 0390 9D020000 		.4byte	0x29d
 1311 0394 17       		.uleb128 0x17
 1312 0395 78307000 		.ascii	"x0p\000"
 1313 0399 02       		.byte	0x2
 1314 039a A1       		.byte	0xa1
 1315 039b ED020000 		.4byte	0x2ed
 1316 039f 17       		.uleb128 0x17
 1317 03a0 783000   		.ascii	"x0\000"
 1318 03a3 02       		.byte	0x2
 1319 03a4 A3       		.byte	0xa3
 1320 03a5 ED020000 		.4byte	0x2ed
 1321 03a9 17       		.uleb128 0x17
 1322 03aa 783100   		.ascii	"x1\000"
 1323 03ad 02       		.byte	0x2
 1324 03ae A4       		.byte	0xa4
 1325 03af ED020000 		.4byte	0x2ed
 1326 03b3 17       		.uleb128 0x17
 1327 03b4 793000   		.ascii	"y0\000"
 1328 03b7 02       		.byte	0x2
 1329 03b8 A6       		.byte	0xa6
 1330 03b9 9D020000 		.4byte	0x29d
 1331 03bd 00       		.byte	0
 1332 03be 12       		.uleb128 0x12
 1333 03bf AD020000 		.4byte	.LASF60
 1334 03c3 02       		.byte	0x2
 1335 03c4 D0       		.byte	0xd0
 1336 03c5 25000000 		.4byte	0x25
 1337 03c9 03       		.byte	0x3
 1338 03ca 20040000 		.4byte	0x420
 1339 03ce 13       		.uleb128 0x13
 1340 03cf 7800     		.ascii	"x\000"
 1341 03d1 02       		.byte	0x2
 1342 03d2 D0       		.byte	0xd0
 1343 03d3 25000000 		.4byte	0x25
 1344 03d7 17       		.uleb128 0x17
 1345 03d8 7000     		.ascii	"p\000"
 1346 03da 02       		.byte	0x2
 1347 03db D1       		.byte	0xd1
 1348 03dc 9D020000 		.4byte	0x29d
 1349 03e0 17       		.uleb128 0x17
 1350 03e1 78306600 		.ascii	"x0f\000"
 1351 03e5 02       		.byte	0x2
 1352 03e6 D3       		.byte	0xd3
 1353 03e7 9D020000 		.4byte	0x29d
 1354 03eb 17       		.uleb128 0x17
 1355 03ec 78307000 		.ascii	"x0p\000"
 1356 03f0 02       		.byte	0x2
 1357 03f1 D4       		.byte	0xd4
 1358 03f2 ED020000 		.4byte	0x2ed
 1359 03f6 17       		.uleb128 0x17
 1360 03f7 783000   		.ascii	"x0\000"
 1361 03fa 02       		.byte	0x2
 1362 03fb D6       		.byte	0xd6
 1363 03fc BF000000 		.4byte	0xbf
 1364 0400 17       		.uleb128 0x17
ARM GAS  C:\msys64\tmp\ccczchWq.s 			page 25


 1365 0401 783100   		.ascii	"x1\000"
 1366 0404 02       		.byte	0x2
 1367 0405 D6       		.byte	0xd6
 1368 0406 BF000000 		.4byte	0xbf
 1369 040a 18       		.uleb128 0x18
 1370 040b C4050000 		.4byte	.LASF61
 1371 040f 02       		.byte	0x2
 1372 0410 D7       		.byte	0xd7
 1373 0411 25000000 		.4byte	0x25
 1374 0415 17       		.uleb128 0x17
 1375 0416 793000   		.ascii	"y0\000"
 1376 0419 02       		.byte	0x2
 1377 041a DE       		.byte	0xde
 1378 041b 9D020000 		.4byte	0x29d
 1379 041f 00       		.byte	0
 1380 0420 14       		.uleb128 0x14
 1381 0421 83010000 		.4byte	.LASF62
 1382 0425 02       		.byte	0x2
 1383 0426 B401     		.2byte	0x1b4
 1384 0428 25000000 		.4byte	0x25
 1385 042c 03       		.byte	0x3
 1386 042d 7F040000 		.4byte	0x47f
 1387 0431 15       		.uleb128 0x15
 1388 0432 7800     		.ascii	"x\000"
 1389 0434 02       		.byte	0x2
 1390 0435 B401     		.2byte	0x1b4
 1391 0437 25000000 		.4byte	0x25
 1392 043b 19       		.uleb128 0x19
 1393 043c 7000     		.ascii	"p\000"
 1394 043e 02       		.byte	0x2
 1395 043f B501     		.2byte	0x1b5
 1396 0441 9D020000 		.4byte	0x29d
 1397 0445 19       		.uleb128 0x19
 1398 0446 78306600 		.ascii	"x0f\000"
 1399 044a 02       		.byte	0x2
 1400 044b B701     		.2byte	0x1b7
 1401 044d 9D020000 		.4byte	0x29d
 1402 0451 19       		.uleb128 0x19
 1403 0452 78307000 		.ascii	"x0p\000"
 1404 0456 02       		.byte	0x2
 1405 0457 B801     		.2byte	0x1b8
 1406 0459 ED020000 		.4byte	0x2ed
 1407 045d 19       		.uleb128 0x19
 1408 045e 783000   		.ascii	"x0\000"
 1409 0461 02       		.byte	0x2
 1410 0462 BA01     		.2byte	0x1ba
 1411 0464 ED020000 		.4byte	0x2ed
 1412 0468 19       		.uleb128 0x19
 1413 0469 783100   		.ascii	"x1\000"
 1414 046c 02       		.byte	0x2
 1415 046d BB01     		.2byte	0x1bb
 1416 046f ED020000 		.4byte	0x2ed
 1417 0473 19       		.uleb128 0x19
 1418 0474 793000   		.ascii	"y0\000"
 1419 0477 02       		.byte	0x2
 1420 0478 BC01     		.2byte	0x1bc
 1421 047a 9D020000 		.4byte	0x29d
ARM GAS  C:\msys64\tmp\ccczchWq.s 			page 26


 1422 047e 00       		.byte	0
 1423 047f 12       		.uleb128 0x12
 1424 0480 9B010000 		.4byte	.LASF63
 1425 0484 02       		.byte	0x2
 1426 0485 7C       		.byte	0x7c
 1427 0486 25000000 		.4byte	0x25
 1428 048a 03       		.byte	0x3
 1429 048b C3040000 		.4byte	0x4c3
 1430 048f 16       		.uleb128 0x16
 1431 0490 31040000 		.4byte	.LASF58
 1432 0494 02       		.byte	0x2
 1433 0495 7C       		.byte	0x7c
 1434 0496 9E000000 		.4byte	0x9e
 1435 049a 13       		.uleb128 0x13
 1436 049b 6D6F6400 		.ascii	"mod\000"
 1437 049f 02       		.byte	0x2
 1438 04a0 7C       		.byte	0x7c
 1439 04a1 9E000000 		.4byte	0x9e
 1440 04a5 17       		.uleb128 0x17
 1441 04a6 663000   		.ascii	"f0\000"
 1442 04a9 02       		.byte	0x2
 1443 04aa 7D       		.byte	0x7d
 1444 04ab 9D020000 		.4byte	0x29d
 1445 04af 17       		.uleb128 0x17
 1446 04b0 663100   		.ascii	"f1\000"
 1447 04b3 02       		.byte	0x2
 1448 04b4 7E       		.byte	0x7e
 1449 04b5 9D020000 		.4byte	0x29d
 1450 04b9 17       		.uleb128 0x17
 1451 04ba 6600     		.ascii	"f\000"
 1452 04bc 02       		.byte	0x2
 1453 04bd 80       		.byte	0x80
 1454 04be 9D020000 		.4byte	0x29d
 1455 04c2 00       		.byte	0
 1456 04c3 1A       		.uleb128 0x1a
 1457 04c4 BB000000 		.4byte	.LASF71
 1458 04c8 01       		.byte	0x1
 1459 04c9 14       		.byte	0x14
 1460 04ca 00000000 		.4byte	.LFB281
 1461 04ce 1C000000 		.4byte	.LFE281-.LFB281
 1462 04d2 01       		.uleb128 0x1
 1463 04d3 9C       		.byte	0x9c
 1464 04d4 F3040000 		.4byte	0x4f3
 1465 04d8 1B       		.uleb128 0x1b
 1466 04d9 B6020000 		.4byte	.LASF64
 1467 04dd 01       		.byte	0x1
 1468 04de 14       		.byte	0x14
 1469 04df BF000000 		.4byte	0xbf
 1470 04e3 01       		.uleb128 0x1
 1471 04e4 50       		.byte	0x50
 1472 04e5 1C       		.uleb128 0x1c
 1473 04e6 61706900 		.ascii	"api\000"
 1474 04ea 01       		.byte	0x1
 1475 04eb 14       		.byte	0x14
 1476 04ec BF000000 		.4byte	0xbf
 1477 04f0 01       		.uleb128 0x1
 1478 04f1 51       		.byte	0x51
ARM GAS  C:\msys64\tmp\ccczchWq.s 			page 27


 1479 04f2 00       		.byte	0
 1480 04f3 1D       		.uleb128 0x1d
 1481 04f4 6F736300 		.ascii	"osc\000"
 1482 04f8 01       		.byte	0x1
 1483 04f9 20       		.byte	0x20
 1484 04fa BF010000 		.4byte	.LASF96
 1485 04fe 25000000 		.4byte	0x25
 1486 0502 1C000000 		.4byte	.LFB282
 1487 0506 78010000 		.4byte	.LFE282-.LFB282
 1488 050a 01       		.uleb128 0x1
 1489 050b 9C       		.byte	0x9c
 1490 050c 8A060000 		.4byte	0x68a
 1491 0510 1E       		.uleb128 0x1e
 1492 0511 C6000000 		.4byte	.LASF65
 1493 0515 01       		.byte	0x1
 1494 0516 20       		.byte	0x20
 1495 0517 25000000 		.4byte	0x25
 1496 051b 00000000 		.4byte	.LLST0
 1497 051f 1E       		.uleb128 0x1e
 1498 0520 41000000 		.4byte	.LASF66
 1499 0524 01       		.byte	0x1
 1500 0525 20       		.byte	0x20
 1501 0526 A9000000 		.4byte	0xa9
 1502 052a B0000000 		.4byte	.LLST1
 1503 052e 1F       		.uleb128 0x1f
 1504 052f 67030000 		.4byte	0x367
 1505 0533 2C000000 		.4byte	.LBB76
 1506 0537 52000000 		.4byte	.LBE76-.LBB76
 1507 053b 01       		.byte	0x1
 1508 053c 25       		.byte	0x25
 1509 053d AA050000 		.4byte	0x5aa
 1510 0541 20       		.uleb128 0x20
 1511 0542 77030000 		.4byte	0x377
 1512 0546 4E010000 		.4byte	.LLST2
 1513 054a 21       		.uleb128 0x21
 1514 054b 2C000000 		.4byte	.LBB77
 1515 054f 52000000 		.4byte	.LBE77-.LBB77
 1516 0553 22       		.uleb128 0x22
 1517 0554 80030000 		.4byte	0x380
 1518 0558 72010000 		.4byte	.LLST3
 1519 055c 22       		.uleb128 0x22
 1520 055d 89030000 		.4byte	0x389
 1521 0561 AA010000 		.4byte	.LLST4
 1522 0565 22       		.uleb128 0x22
 1523 0566 94030000 		.4byte	0x394
 1524 056a E2010000 		.4byte	.LLST5
 1525 056e 22       		.uleb128 0x22
 1526 056f 9F030000 		.4byte	0x39f
 1527 0573 F5010000 		.4byte	.LLST6
 1528 0577 22       		.uleb128 0x22
 1529 0578 A9030000 		.4byte	0x3a9
 1530 057c 25020000 		.4byte	.LLST7
 1531 0580 23       		.uleb128 0x23
 1532 0581 B3030000 		.4byte	0x3b3
 1533 0585 24       		.uleb128 0x24
 1534 0586 18030000 		.4byte	0x318
 1535 058a 54000000 		.4byte	.LBB78
ARM GAS  C:\msys64\tmp\ccczchWq.s 			page 28


 1536 058e 00000000 		.4byte	.Ldebug_ranges0+0
 1537 0592 02       		.byte	0x2
 1538 0593 A6       		.byte	0xa6
 1539 0594 25       		.uleb128 0x25
 1540 0595 3F030000 		.4byte	0x33f
 1541 0599 20       		.uleb128 0x20
 1542 059a 34030000 		.4byte	0x334
 1543 059e 68020000 		.4byte	.LLST8
 1544 05a2 25       		.uleb128 0x25
 1545 05a3 29030000 		.4byte	0x329
 1546 05a7 00       		.byte	0
 1547 05a8 00       		.byte	0
 1548 05a9 00       		.byte	0
 1549 05aa 1F       		.uleb128 0x1f
 1550 05ab BE030000 		.4byte	0x3be
 1551 05af 7E000000 		.4byte	.LBB84
 1552 05b3 64000000 		.4byte	.LBE84-.LBB84
 1553 05b7 01       		.byte	0x1
 1554 05b8 27       		.byte	0x27
 1555 05b9 0C060000 		.4byte	0x60c
 1556 05bd 20       		.uleb128 0x20
 1557 05be CE030000 		.4byte	0x3ce
 1558 05c2 7C020000 		.4byte	.LLST9
 1559 05c6 21       		.uleb128 0x21
 1560 05c7 7E000000 		.4byte	.LBB85
 1561 05cb 64000000 		.4byte	.LBE85-.LBB85
 1562 05cf 22       		.uleb128 0x22
 1563 05d0 D7030000 		.4byte	0x3d7
 1564 05d4 A0020000 		.4byte	.LLST10
 1565 05d8 22       		.uleb128 0x22
 1566 05d9 E0030000 		.4byte	0x3e0
 1567 05dd D8020000 		.4byte	.LLST11
 1568 05e1 22       		.uleb128 0x22
 1569 05e2 EB030000 		.4byte	0x3eb
 1570 05e6 10030000 		.4byte	.LLST12
 1571 05ea 22       		.uleb128 0x22
 1572 05eb F6030000 		.4byte	0x3f6
 1573 05ef 23030000 		.4byte	.LLST13
 1574 05f3 22       		.uleb128 0x22
 1575 05f4 00040000 		.4byte	0x400
 1576 05f8 41030000 		.4byte	.LLST14
 1577 05fc 22       		.uleb128 0x22
 1578 05fd 0A040000 		.4byte	0x40a
 1579 0601 61030000 		.4byte	.LLST15
 1580 0605 23       		.uleb128 0x23
 1581 0606 15040000 		.4byte	0x415
 1582 060a 00       		.byte	0
 1583 060b 00       		.byte	0
 1584 060c 26       		.uleb128 0x26
 1585 060d 20040000 		.4byte	0x420
 1586 0611 E4000000 		.4byte	.LBB86
 1587 0615 6E000000 		.4byte	.LBE86-.LBB86
 1588 0619 01       		.byte	0x1
 1589 061a 29       		.byte	0x29
 1590 061b 20       		.uleb128 0x20
 1591 061c 31040000 		.4byte	0x431
 1592 0620 95030000 		.4byte	.LLST16
ARM GAS  C:\msys64\tmp\ccczchWq.s 			page 29


 1593 0624 21       		.uleb128 0x21
 1594 0625 E4000000 		.4byte	.LBB87
 1595 0629 6E000000 		.4byte	.LBE87-.LBB87
 1596 062d 22       		.uleb128 0x22
 1597 062e 3B040000 		.4byte	0x43b
 1598 0632 B9030000 		.4byte	.LLST17
 1599 0636 22       		.uleb128 0x22
 1600 0637 45040000 		.4byte	0x445
 1601 063b F1030000 		.4byte	.LLST18
 1602 063f 22       		.uleb128 0x22
 1603 0640 51040000 		.4byte	0x451
 1604 0644 29040000 		.4byte	.LLST19
 1605 0648 22       		.uleb128 0x22
 1606 0649 5D040000 		.4byte	0x45d
 1607 064d 3C040000 		.4byte	.LLST20
 1608 0651 22       		.uleb128 0x22
 1609 0652 68040000 		.4byte	0x468
 1610 0656 7B040000 		.4byte	.LLST21
 1611 065a 23       		.uleb128 0x23
 1612 065b 73040000 		.4byte	0x473
 1613 065f 27       		.uleb128 0x27
 1614 0660 18030000 		.4byte	0x318
 1615 0664 2C010000 		.4byte	.LBB88
 1616 0668 20000000 		.4byte	.Ldebug_ranges0+0x20
 1617 066c 02       		.byte	0x2
 1618 066d BC01     		.2byte	0x1bc
 1619 066f 25       		.uleb128 0x25
 1620 0670 3F030000 		.4byte	0x33f
 1621 0674 20       		.uleb128 0x20
 1622 0675 34030000 		.4byte	0x334
 1623 0679 8E040000 		.4byte	.LLST22
 1624 067d 20       		.uleb128 0x20
 1625 067e 29030000 		.4byte	0x329
 1626 0682 A2040000 		.4byte	.LLST23
 1627 0686 00       		.byte	0
 1628 0687 00       		.byte	0
 1629 0688 00       		.byte	0
 1630 0689 00       		.byte	0
 1631 068a 28       		.uleb128 0x28
 1632 068b 9F020000 		.4byte	.LASF67
 1633 068f 01       		.byte	0x1
 1634 0690 32       		.byte	0x32
 1635 0691 5E040000 		.4byte	.LASF97
 1636 0695 25000000 		.4byte	0x25
 1637 0699 94010000 		.4byte	.LFB283
 1638 069d BC000000 		.4byte	.LFE283-.LFB283
 1639 06a1 01       		.uleb128 0x1
 1640 06a2 9C       		.byte	0x9c
 1641 06a3 53070000 		.4byte	0x753
 1642 06a7 29       		.uleb128 0x29
 1643 06a8 773000   		.ascii	"w0\000"
 1644 06ab 01       		.byte	0x1
 1645 06ac 32       		.byte	0x32
 1646 06ad 25000000 		.4byte	0x25
 1647 06b1 CB040000 		.4byte	.LLST24
 1648 06b5 29       		.uleb128 0x29
 1649 06b6 773100   		.ascii	"w1\000"
ARM GAS  C:\msys64\tmp\ccczchWq.s 			page 30


 1650 06b9 01       		.byte	0x1
 1651 06ba 32       		.byte	0x32
 1652 06bb 25000000 		.4byte	0x25
 1653 06bf EF040000 		.4byte	.LLST25
 1654 06c3 29       		.uleb128 0x29
 1655 06c4 7900     		.ascii	"y\000"
 1656 06c6 01       		.byte	0x1
 1657 06c7 32       		.byte	0x32
 1658 06c8 F7000000 		.4byte	0xf7
 1659 06cc 13050000 		.4byte	.LLST26
 1660 06d0 1E       		.uleb128 0x1e
 1661 06d1 1B060000 		.4byte	.LASF68
 1662 06d5 01       		.byte	0x1
 1663 06d6 32       		.byte	0x32
 1664 06d7 ED020000 		.4byte	0x2ed
 1665 06db 49050000 		.4byte	.LLST27
 1666 06df 2A       		.uleb128 0x2a
 1667 06e0 795F6500 		.ascii	"y_e\000"
 1668 06e4 01       		.byte	0x1
 1669 06e5 34       		.byte	0x34
 1670 06e6 FD000000 		.4byte	0xfd
 1671 06ea 6A050000 		.4byte	.LLST28
 1672 06ee 2B       		.uleb128 0x2b
 1673 06ef 40000000 		.4byte	.Ldebug_ranges0+0x40
 1674 06f3 2A       		.uleb128 0x2a
 1675 06f4 703000   		.ascii	"p0\000"
 1676 06f7 01       		.byte	0x1
 1677 06f8 37       		.byte	0x37
 1678 06f9 25000000 		.4byte	0x25
 1679 06fd 91050000 		.4byte	.LLST29
 1680 0701 2C       		.uleb128 0x2c
 1681 0702 11060000 		.4byte	.LASF69
 1682 0706 01       		.byte	0x1
 1683 0707 3B       		.byte	0x3b
 1684 0708 9D020000 		.4byte	0x29d
 1685 070c B1050000 		.4byte	.LLST30
 1686 0710 2A       		.uleb128 0x2a
 1687 0711 703100   		.ascii	"p1\000"
 1688 0714 01       		.byte	0x1
 1689 0715 40       		.byte	0x40
 1690 0716 25000000 		.4byte	0x25
 1691 071a D1050000 		.4byte	.LLST31
 1692 071e 2C       		.uleb128 0x2c
 1693 071f E6040000 		.4byte	.LASF70
 1694 0723 01       		.byte	0x1
 1695 0724 44       		.byte	0x44
 1696 0725 9D020000 		.4byte	0x29d
 1697 0729 E5050000 		.4byte	.LLST32
 1698 072d 2D       		.uleb128 0x2d
 1699 072e E2010000 		.4byte	.LVL53
 1700 0732 F3040000 		.4byte	0x4f3
 1701 0736 41070000 		.4byte	0x741
 1702 073a 2E       		.uleb128 0x2e
 1703 073b 01       		.uleb128 0x1
 1704 073c 50       		.byte	0x50
 1705 073d 02       		.uleb128 0x2
 1706 073e 78       		.byte	0x78
ARM GAS  C:\msys64\tmp\ccczchWq.s 			page 31


 1707 073f 00       		.sleb128 0
 1708 0740 00       		.byte	0
 1709 0741 2F       		.uleb128 0x2f
 1710 0742 1A020000 		.4byte	.LVL57
 1711 0746 F3040000 		.4byte	0x4f3
 1712 074a 2E       		.uleb128 0x2e
 1713 074b 01       		.uleb128 0x1
 1714 074c 50       		.byte	0x50
 1715 074d 02       		.uleb128 0x2
 1716 074e 76       		.byte	0x76
 1717 074f 00       		.sleb128 0
 1718 0750 00       		.byte	0
 1719 0751 00       		.byte	0
 1720 0752 00       		.byte	0
 1721 0753 1A       		.uleb128 0x1a
 1722 0754 59020000 		.4byte	.LASF72
 1723 0758 01       		.byte	0x1
 1724 0759 50       		.byte	0x50
 1725 075a 50020000 		.4byte	.LFB284
 1726 075e D0000000 		.4byte	.LFE284-.LFB284
 1727 0762 01       		.uleb128 0x1
 1728 0763 9C       		.byte	0x9c
 1729 0764 340A0000 		.4byte	0xa34
 1730 0768 1E       		.uleb128 0x1e
 1731 0769 75040000 		.4byte	.LASF73
 1732 076d 01       		.byte	0x1
 1733 076e 50       		.byte	0x50
 1734 076f 340A0000 		.4byte	0xa34
 1735 0773 F9050000 		.4byte	.LLST33
 1736 0777 29       		.uleb128 0x29
 1737 0778 796E00   		.ascii	"yn\000"
 1738 077b 01       		.byte	0x1
 1739 077c 51       		.byte	0x51
 1740 077d 08010000 		.4byte	0x108
 1741 0781 1A060000 		.4byte	.LLST34
 1742 0785 1E       		.uleb128 0x1e
 1743 0786 1B060000 		.4byte	.LASF68
 1744 078a 01       		.byte	0x1
 1745 078b 52       		.byte	0x52
 1746 078c ED020000 		.4byte	0x2ed
 1747 0790 51060000 		.4byte	.LLST35
 1748 0794 2A       		.uleb128 0x2a
 1749 0795 773000   		.ascii	"w0\000"
 1750 0798 01       		.byte	0x1
 1751 0799 54       		.byte	0x54
 1752 079a 9D020000 		.4byte	0x29d
 1753 079e 72060000 		.4byte	.LLST36
 1754 07a2 2A       		.uleb128 0x2a
 1755 07a3 773100   		.ascii	"w1\000"
 1756 07a6 01       		.byte	0x1
 1757 07a7 55       		.byte	0x55
 1758 07a8 9D020000 		.4byte	0x29d
 1759 07ac 86060000 		.4byte	.LLST37
 1760 07b0 2A       		.uleb128 0x2a
 1761 07b1 7900     		.ascii	"y\000"
 1762 07b3 01       		.byte	0x1
 1763 07b4 57       		.byte	0x57
ARM GAS  C:\msys64\tmp\ccczchWq.s 			page 32


 1764 07b5 F7000000 		.4byte	0xf7
 1765 07b9 9A060000 		.4byte	.LLST38
 1766 07bd 30       		.uleb128 0x30
 1767 07be 7F040000 		.4byte	0x47f
 1768 07c2 56020000 		.4byte	.LBB101
 1769 07c6 68000000 		.4byte	.Ldebug_ranges0+0x68
 1770 07ca 01       		.byte	0x1
 1771 07cb 54       		.byte	0x54
 1772 07cc F6080000 		.4byte	0x8f6
 1773 07d0 20       		.uleb128 0x20
 1774 07d1 9A040000 		.4byte	0x49a
 1775 07d5 C6060000 		.4byte	.LLST39
 1776 07d9 20       		.uleb128 0x20
 1777 07da 8F040000 		.4byte	0x48f
 1778 07de F7060000 		.4byte	.LLST40
 1779 07e2 2B       		.uleb128 0x2b
 1780 07e3 68000000 		.4byte	.Ldebug_ranges0+0x68
 1781 07e7 23       		.uleb128 0x23
 1782 07e8 A5040000 		.4byte	0x4a5
 1783 07ec 23       		.uleb128 0x23
 1784 07ed AF040000 		.4byte	0x4af
 1785 07f1 23       		.uleb128 0x23
 1786 07f2 B9040000 		.4byte	0x4b9
 1787 07f6 30       		.uleb128 0x30
 1788 07f7 4B030000 		.4byte	0x34b
 1789 07fb 56020000 		.4byte	.LBB103
 1790 07ff A8000000 		.4byte	.Ldebug_ranges0+0xa8
 1791 0803 02       		.byte	0x2
 1792 0804 7D       		.byte	0x7d
 1793 0805 35080000 		.4byte	0x835
 1794 0809 20       		.uleb128 0x20
 1795 080a 5B030000 		.4byte	0x35b
 1796 080e 22070000 		.4byte	.LLST41
 1797 0812 26       		.uleb128 0x26
 1798 0813 CA020000 		.4byte	0x2ca
 1799 0817 6C020000 		.4byte	.LBB105
 1800 081b 02000000 		.4byte	.LBE105-.LBB105
 1801 081f 02       		.byte	0x2
 1802 0820 73       		.byte	0x73
 1803 0821 20       		.uleb128 0x20
 1804 0822 E3020000 		.4byte	0x2e3
 1805 0826 35070000 		.4byte	.LLST42
 1806 082a 20       		.uleb128 0x20
 1807 082b DA020000 		.4byte	0x2da
 1808 082f 4A070000 		.4byte	.LLST43
 1809 0833 00       		.byte	0
 1810 0834 00       		.byte	0
 1811 0835 30       		.uleb128 0x30
 1812 0836 4B030000 		.4byte	0x34b
 1813 083a 74020000 		.4byte	.LBB113
 1814 083e D8000000 		.4byte	.Ldebug_ranges0+0xd8
 1815 0842 02       		.byte	0x2
 1816 0843 7E       		.byte	0x7e
 1817 0844 68080000 		.4byte	0x868
 1818 0848 25       		.uleb128 0x25
 1819 0849 5B030000 		.4byte	0x35b
 1820 084d 26       		.uleb128 0x26
ARM GAS  C:\msys64\tmp\ccczchWq.s 			page 33


 1821 084e CA020000 		.4byte	0x2ca
 1822 0852 74020000 		.4byte	.LBB115
 1823 0856 02000000 		.4byte	.LBE115-.LBB115
 1824 085a 02       		.byte	0x2
 1825 085b 73       		.byte	0x73
 1826 085c 25       		.uleb128 0x25
 1827 085d E3020000 		.4byte	0x2e3
 1828 0861 25       		.uleb128 0x25
 1829 0862 DA020000 		.4byte	0x2da
 1830 0866 00       		.byte	0
 1831 0867 00       		.byte	0
 1832 0868 30       		.uleb128 0x30
 1833 0869 18030000 		.4byte	0x318
 1834 086d 90020000 		.4byte	.LBB121
 1835 0871 F0000000 		.4byte	.Ldebug_ranges0+0xf0
 1836 0875 02       		.byte	0x2
 1837 0876 80       		.byte	0x80
 1838 0877 8F080000 		.4byte	0x88f
 1839 087b 25       		.uleb128 0x25
 1840 087c 3F030000 		.4byte	0x33f
 1841 0880 25       		.uleb128 0x25
 1842 0881 34030000 		.4byte	0x334
 1843 0885 20       		.uleb128 0x20
 1844 0886 29030000 		.4byte	0x329
 1845 088a 5D070000 		.4byte	.LLST44
 1846 088e 00       		.byte	0
 1847 088f 26       		.uleb128 0x26
 1848 0890 F2020000 		.4byte	0x2f2
 1849 0894 A2020000 		.4byte	.LBB127
 1850 0898 12000000 		.4byte	.LBE127-.LBB127
 1851 089c 02       		.byte	0x2
 1852 089d 80       		.byte	0x80
 1853 089e 20       		.uleb128 0x20
 1854 089f 0D030000 		.4byte	0x30d
 1855 08a3 71070000 		.4byte	.LLST45
 1856 08a7 25       		.uleb128 0x25
 1857 08a8 03030000 		.4byte	0x303
 1858 08ac 31       		.uleb128 0x31
 1859 08ad A2020000 		.4byte	0x2a2
 1860 08b1 A2020000 		.4byte	.LBB128
 1861 08b5 12000000 		.4byte	.LBE128-.LBB128
 1862 08b9 03       		.byte	0x3
 1863 08ba 8601     		.2byte	0x186
 1864 08bc 20       		.uleb128 0x20
 1865 08bd BD020000 		.4byte	0x2bd
 1866 08c1 71070000 		.4byte	.LLST45
 1867 08c5 25       		.uleb128 0x25
 1868 08c6 B3020000 		.4byte	0x2b3
 1869 08ca 31       		.uleb128 0x31
 1870 08cb 71020000 		.4byte	0x271
 1871 08cf A2020000 		.4byte	.LBB129
 1872 08d3 12000000 		.4byte	.LBE129-.LBB129
 1873 08d7 03       		.byte	0x3
 1874 08d8 4B01     		.2byte	0x14b
 1875 08da 25       		.uleb128 0x25
 1876 08db 93020000 		.4byte	0x293
 1877 08df 20       		.uleb128 0x20
ARM GAS  C:\msys64\tmp\ccczchWq.s 			page 34


 1878 08e0 8A020000 		.4byte	0x28a
 1879 08e4 71070000 		.4byte	.LLST45
 1880 08e8 20       		.uleb128 0x20
 1881 08e9 81020000 		.4byte	0x281
 1882 08ed 89070000 		.4byte	.LLST48
 1883 08f1 00       		.byte	0
 1884 08f2 00       		.byte	0
 1885 08f3 00       		.byte	0
 1886 08f4 00       		.byte	0
 1887 08f5 00       		.byte	0
 1888 08f6 30       		.uleb128 0x30
 1889 08f7 7F040000 		.4byte	0x47f
 1890 08fb B4020000 		.4byte	.LBB142
 1891 08ff 10010000 		.4byte	.Ldebug_ranges0+0x110
 1892 0903 01       		.byte	0x1
 1893 0904 55       		.byte	0x55
 1894 0905 1B0A0000 		.4byte	0xa1b
 1895 0909 20       		.uleb128 0x20
 1896 090a 9A040000 		.4byte	0x49a
 1897 090e A7070000 		.4byte	.LLST49
 1898 0912 25       		.uleb128 0x25
 1899 0913 8F040000 		.4byte	0x48f
 1900 0917 2B       		.uleb128 0x2b
 1901 0918 10010000 		.4byte	.Ldebug_ranges0+0x110
 1902 091c 23       		.uleb128 0x23
 1903 091d A5040000 		.4byte	0x4a5
 1904 0921 23       		.uleb128 0x23
 1905 0922 AF040000 		.4byte	0x4af
 1906 0926 23       		.uleb128 0x23
 1907 0927 B9040000 		.4byte	0x4b9
 1908 092b 30       		.uleb128 0x30
 1909 092c 4B030000 		.4byte	0x34b
 1910 0930 B4020000 		.4byte	.LBB144
 1911 0934 30010000 		.4byte	.Ldebug_ranges0+0x130
 1912 0938 02       		.byte	0x2
 1913 0939 7D       		.byte	0x7d
 1914 093a 5E090000 		.4byte	0x95e
 1915 093e 25       		.uleb128 0x25
 1916 093f 5B030000 		.4byte	0x35b
 1917 0943 26       		.uleb128 0x26
 1918 0944 CA020000 		.4byte	0x2ca
 1919 0948 B4020000 		.4byte	.LBB146
 1920 094c 02000000 		.4byte	.LBE146-.LBB146
 1921 0950 02       		.byte	0x2
 1922 0951 73       		.byte	0x73
 1923 0952 25       		.uleb128 0x25
 1924 0953 E3020000 		.4byte	0x2e3
 1925 0957 25       		.uleb128 0x25
 1926 0958 DA020000 		.4byte	0x2da
 1927 095c 00       		.byte	0
 1928 095d 00       		.byte	0
 1929 095e 30       		.uleb128 0x30
 1930 095f 4B030000 		.4byte	0x34b
 1931 0963 C4020000 		.4byte	.LBB152
 1932 0967 58010000 		.4byte	.Ldebug_ranges0+0x158
 1933 096b 02       		.byte	0x2
 1934 096c 7E       		.byte	0x7e
ARM GAS  C:\msys64\tmp\ccczchWq.s 			page 35


 1935 096d 91090000 		.4byte	0x991
 1936 0971 25       		.uleb128 0x25
 1937 0972 5B030000 		.4byte	0x35b
 1938 0976 26       		.uleb128 0x26
 1939 0977 CA020000 		.4byte	0x2ca
 1940 097b C4020000 		.4byte	.LBB154
 1941 097f 02000000 		.4byte	.LBE154-.LBB154
 1942 0983 02       		.byte	0x2
 1943 0984 73       		.byte	0x73
 1944 0985 25       		.uleb128 0x25
 1945 0986 E3020000 		.4byte	0x2e3
 1946 098a 25       		.uleb128 0x25
 1947 098b DA020000 		.4byte	0x2da
 1948 098f 00       		.byte	0
 1949 0990 00       		.byte	0
 1950 0991 30       		.uleb128 0x30
 1951 0992 18030000 		.4byte	0x318
 1952 0996 D6020000 		.4byte	.LBB160
 1953 099a 70010000 		.4byte	.Ldebug_ranges0+0x170
 1954 099e 02       		.byte	0x2
 1955 099f 80       		.byte	0x80
 1956 09a0 B4090000 		.4byte	0x9b4
 1957 09a4 25       		.uleb128 0x25
 1958 09a5 3F030000 		.4byte	0x33f
 1959 09a9 25       		.uleb128 0x25
 1960 09aa 34030000 		.4byte	0x334
 1961 09ae 25       		.uleb128 0x25
 1962 09af 29030000 		.4byte	0x329
 1963 09b3 00       		.byte	0
 1964 09b4 26       		.uleb128 0x26
 1965 09b5 F2020000 		.4byte	0x2f2
 1966 09b9 EC020000 		.4byte	.LBB164
 1967 09bd 0E000000 		.4byte	.LBE164-.LBB164
 1968 09c1 02       		.byte	0x2
 1969 09c2 80       		.byte	0x80
 1970 09c3 20       		.uleb128 0x20
 1971 09c4 0D030000 		.4byte	0x30d
 1972 09c8 C1070000 		.4byte	.LLST50
 1973 09cc 25       		.uleb128 0x25
 1974 09cd 03030000 		.4byte	0x303
 1975 09d1 31       		.uleb128 0x31
 1976 09d2 A2020000 		.4byte	0x2a2
 1977 09d6 EC020000 		.4byte	.LBB165
 1978 09da 0E000000 		.4byte	.LBE165-.LBB165
 1979 09de 03       		.byte	0x3
 1980 09df 8601     		.2byte	0x186
 1981 09e1 20       		.uleb128 0x20
 1982 09e2 BD020000 		.4byte	0x2bd
 1983 09e6 C1070000 		.4byte	.LLST50
 1984 09ea 25       		.uleb128 0x25
 1985 09eb B3020000 		.4byte	0x2b3
 1986 09ef 31       		.uleb128 0x31
 1987 09f0 71020000 		.4byte	0x271
 1988 09f4 EC020000 		.4byte	.LBB166
 1989 09f8 0E000000 		.4byte	.LBE166-.LBB166
 1990 09fc 03       		.byte	0x3
 1991 09fd 4B01     		.2byte	0x14b
ARM GAS  C:\msys64\tmp\ccczchWq.s 			page 36


 1992 09ff 25       		.uleb128 0x25
 1993 0a00 93020000 		.4byte	0x293
 1994 0a04 20       		.uleb128 0x20
 1995 0a05 8A020000 		.4byte	0x28a
 1996 0a09 C1070000 		.4byte	.LLST50
 1997 0a0d 20       		.uleb128 0x20
 1998 0a0e 81020000 		.4byte	0x281
 1999 0a12 D9070000 		.4byte	.LLST53
 2000 0a16 00       		.byte	0
 2001 0a17 00       		.byte	0
 2002 0a18 00       		.byte	0
 2003 0a19 00       		.byte	0
 2004 0a1a 00       		.byte	0
 2005 0a1b 32       		.uleb128 0x32
 2006 0a1c 0A030000 		.4byte	.LVL80
 2007 0a20 8A060000 		.4byte	0x68a
 2008 0a24 2E       		.uleb128 0x2e
 2009 0a25 01       		.uleb128 0x1
 2010 0a26 50       		.byte	0x50
 2011 0a27 03       		.uleb128 0x3
 2012 0a28 F3       		.byte	0xf3
 2013 0a29 01       		.uleb128 0x1
 2014 0a2a 51       		.byte	0x51
 2015 0a2b 2E       		.uleb128 0x2e
 2016 0a2c 01       		.uleb128 0x1
 2017 0a2d 51       		.byte	0x51
 2018 0a2e 03       		.uleb128 0x3
 2019 0a2f F3       		.byte	0xf3
 2020 0a30 01       		.uleb128 0x1
 2021 0a31 52       		.byte	0x52
 2022 0a32 00       		.byte	0
 2023 0a33 00       		.byte	0
 2024 0a34 08       		.uleb128 0x8
 2025 0a35 F5010000 		.4byte	0x1f5
 2026 0a39 33       		.uleb128 0x33
 2027 0a3a 02010000 		.4byte	.LASF98
 2028 0a3e 01       		.byte	0x1
 2029 0a3f 62       		.byte	0x62
 2030 0a40 01       		.byte	0x1
 2031 0a41 510A0000 		.4byte	0xa51
 2032 0a45 16       		.uleb128 0x16
 2033 0a46 75040000 		.4byte	.LASF73
 2034 0a4a 01       		.byte	0x1
 2035 0a4b 62       		.byte	0x62
 2036 0a4c 340A0000 		.4byte	0xa34
 2037 0a50 00       		.byte	0
 2038 0a51 34       		.uleb128 0x34
 2039 0a52 390A0000 		.4byte	0xa39
 2040 0a56 22030000 		.4byte	.LFB286
 2041 0a5a 02000000 		.4byte	.LFE286-.LFB286
 2042 0a5e 01       		.uleb128 0x1
 2043 0a5f 9C       		.byte	0x9c
 2044 0a60 6C0A0000 		.4byte	0xa6c
 2045 0a64 35       		.uleb128 0x35
 2046 0a65 450A0000 		.4byte	0xa45
 2047 0a69 01       		.uleb128 0x1
 2048 0a6a 50       		.byte	0x50
ARM GAS  C:\msys64\tmp\ccczchWq.s 			page 37


 2049 0a6b 00       		.byte	0
 2050 0a6c 1A       		.uleb128 0x1a
 2051 0a6d 69000000 		.4byte	.LASF74
 2052 0a71 01       		.byte	0x1
 2053 0a72 68       		.byte	0x68
 2054 0a73 24030000 		.4byte	.LFB287
 2055 0a77 24000000 		.4byte	.LFE287-.LFB287
 2056 0a7b 01       		.uleb128 0x1
 2057 0a7c 9C       		.byte	0x9c
 2058 0a7d 9C0A0000 		.4byte	0xa9c
 2059 0a81 1B       		.uleb128 0x1b
 2060 0a82 E0040000 		.4byte	.LASF75
 2061 0a86 01       		.byte	0x1
 2062 0a87 68       		.byte	0x68
 2063 0a88 A9000000 		.4byte	0xa9
 2064 0a8c 01       		.uleb128 0x1
 2065 0a8d 50       		.byte	0x50
 2066 0a8e 1B       		.uleb128 0x1b
 2067 0a8f 17010000 		.4byte	.LASF76
 2068 0a93 01       		.byte	0x1
 2069 0a94 68       		.byte	0x68
 2070 0a95 A9000000 		.4byte	0xa9
 2071 0a99 01       		.uleb128 0x1
 2072 0a9a 51       		.byte	0x51
 2073 0a9b 00       		.byte	0
 2074 0a9c 36       		.uleb128 0x36
 2075 0a9d 2E000000 		.4byte	.LASF77
 2076 0aa1 02       		.byte	0x2
 2077 0aa2 45       		.byte	0x45
 2078 0aa3 ED020000 		.4byte	0x2ed
 2079 0aa7 36       		.uleb128 0x36
 2080 0aa8 71010000 		.4byte	.LASF78
 2081 0aac 02       		.byte	0x2
 2082 0aad 4A       		.byte	0x4a
 2083 0aae ED020000 		.4byte	0x2ed
 2084 0ab2 0D       		.uleb128 0xd
 2085 0ab3 9D020000 		.4byte	0x29d
 2086 0ab7 C20A0000 		.4byte	0xac2
 2087 0abb 0E       		.uleb128 0xe
 2088 0abc D6000000 		.4byte	0xd6
 2089 0ac0 97       		.byte	0x97
 2090 0ac1 00       		.byte	0
 2091 0ac2 36       		.uleb128 0x36
 2092 0ac3 95040000 		.4byte	.LASF79
 2093 0ac7 02       		.byte	0x2
 2094 0ac8 67       		.byte	0x67
 2095 0ac9 CD0A0000 		.4byte	0xacd
 2096 0acd 08       		.uleb128 0x8
 2097 0ace B20A0000 		.4byte	0xab2
 2098 0ad2 0D       		.uleb128 0xd
 2099 0ad3 9D020000 		.4byte	0x29d
 2100 0ad7 E20A0000 		.4byte	0xae2
 2101 0adb 0E       		.uleb128 0xe
 2102 0adc D6000000 		.4byte	0xd6
 2103 0ae0 80       		.byte	0x80
 2104 0ae1 00       		.byte	0
 2105 0ae2 36       		.uleb128 0x36
ARM GAS  C:\msys64\tmp\ccczchWq.s 			page 38


 2106 0ae3 C5020000 		.4byte	.LASF80
 2107 0ae7 02       		.byte	0x2
 2108 0ae8 94       		.byte	0x94
 2109 0ae9 ED0A0000 		.4byte	0xaed
 2110 0aed 08       		.uleb128 0x8
 2111 0aee D20A0000 		.4byte	0xad2
 2112 0af2 0D       		.uleb128 0xd
 2113 0af3 9D020000 		.4byte	0x29d
 2114 0af7 030B0000 		.4byte	0xb03
 2115 0afb 37       		.uleb128 0x37
 2116 0afc D6000000 		.4byte	0xd6
 2117 0b00 8603     		.2byte	0x386
 2118 0b02 00       		.byte	0
 2119 0b03 36       		.uleb128 0x36
 2120 0b04 A3000000 		.4byte	.LASF81
 2121 0b08 02       		.byte	0x2
 2122 0b09 C6       		.byte	0xc6
 2123 0b0a 0E0B0000 		.4byte	0xb0e
 2124 0b0e 08       		.uleb128 0x8
 2125 0b0f F20A0000 		.4byte	0xaf2
 2126 0b13 38       		.uleb128 0x38
 2127 0b14 21000000 		.4byte	.LASF82
 2128 0b18 02       		.byte	0x2
 2129 0b19 3801     		.2byte	0x138
 2130 0b1b 1F0B0000 		.4byte	0xb1f
 2131 0b1f 08       		.uleb128 0x8
 2132 0b20 F20A0000 		.4byte	0xaf2
 2133 0b24 38       		.uleb128 0x38
 2134 0b25 89050000 		.4byte	.LASF83
 2135 0b29 02       		.byte	0x2
 2136 0b2a AB01     		.2byte	0x1ab
 2137 0b2c 300B0000 		.4byte	0xb30
 2138 0b30 08       		.uleb128 0x8
 2139 0b31 F20A0000 		.4byte	0xaf2
 2140 0b35 0D       		.uleb128 0xd
 2141 0b36 9D020000 		.4byte	0x29d
 2142 0b3a 460B0000 		.4byte	0xb46
 2143 0b3e 37       		.uleb128 0x37
 2144 0b3f D6000000 		.4byte	0xd6
 2145 0b43 0001     		.2byte	0x100
 2146 0b45 00       		.byte	0
 2147 0b46 38       		.uleb128 0x38
 2148 0b47 B2050000 		.4byte	.LASF84
 2149 0b4b 02       		.byte	0x2
 2150 0b4c 4C02     		.2byte	0x24c
 2151 0b4e 520B0000 		.4byte	0xb52
 2152 0b52 08       		.uleb128 0x8
 2153 0b53 350B0000 		.4byte	0xb35
 2154 0b57 38       		.uleb128 0x38
 2155 0b58 5D000000 		.4byte	.LASF85
 2156 0b5c 02       		.byte	0x2
 2157 0b5d 6302     		.2byte	0x263
 2158 0b5f 630B0000 		.4byte	0xb63
 2159 0b63 08       		.uleb128 0x8
 2160 0b64 350B0000 		.4byte	0xb35
 2161 0b68 38       		.uleb128 0x38
 2162 0b69 C9050000 		.4byte	.LASF86
ARM GAS  C:\msys64\tmp\ccczchWq.s 			page 39


 2163 0b6d 02       		.byte	0x2
 2164 0b6e 7B02     		.2byte	0x27b
 2165 0b70 740B0000 		.4byte	0xb74
 2166 0b74 08       		.uleb128 0x8
 2167 0b75 350B0000 		.4byte	0xb35
 2168 0b79 38       		.uleb128 0x38
 2169 0b7a 8C010000 		.4byte	.LASF87
 2170 0b7e 02       		.byte	0x2
 2171 0b7f AA02     		.2byte	0x2aa
 2172 0b81 850B0000 		.4byte	0xb85
 2173 0b85 08       		.uleb128 0x8
 2174 0b86 D20A0000 		.4byte	0xad2
 2175 0b8a 38       		.uleb128 0x38
 2176 0b8b B2040000 		.4byte	.LASF88
 2177 0b8f 02       		.byte	0x2
 2178 0b90 BF02     		.2byte	0x2bf
 2179 0b92 960B0000 		.4byte	0xb96
 2180 0b96 08       		.uleb128 0x8
 2181 0b97 D20A0000 		.4byte	0xad2
 2182 0b9b 38       		.uleb128 0x38
 2183 0b9c FA050000 		.4byte	.LASF89
 2184 0ba0 02       		.byte	0x2
 2185 0ba1 DC02     		.2byte	0x2dc
 2186 0ba3 A70B0000 		.4byte	0xba7
 2187 0ba7 08       		.uleb128 0x8
 2188 0ba8 D20A0000 		.4byte	0xad2
 2189 0bac 39       		.uleb128 0x39
 2190 0bad E0000000 		.4byte	.LASF90
 2191 0bb1 01       		.byte	0x1
 2192 0bb2 11       		.byte	0x11
 2193 0bb3 66020000 		.4byte	0x266
 2194 0bb7 05       		.uleb128 0x5
 2195 0bb8 03       		.byte	0x3
 2196 0bb9 00000000 		.4byte	_ZL7s_state
 2197 0bbd 00       		.byte	0
 2198              		.section	.debug_abbrev,"",%progbits
 2199              	.Ldebug_abbrev0:
 2200 0000 01       		.uleb128 0x1
 2201 0001 11       		.uleb128 0x11
 2202 0002 01       		.byte	0x1
 2203 0003 25       		.uleb128 0x25
 2204 0004 0E       		.uleb128 0xe
 2205 0005 13       		.uleb128 0x13
 2206 0006 0B       		.uleb128 0xb
 2207 0007 03       		.uleb128 0x3
 2208 0008 0E       		.uleb128 0xe
 2209 0009 1B       		.uleb128 0x1b
 2210 000a 0E       		.uleb128 0xe
 2211 000b 11       		.uleb128 0x11
 2212 000c 01       		.uleb128 0x1
 2213 000d 12       		.uleb128 0x12
 2214 000e 06       		.uleb128 0x6
 2215 000f 10       		.uleb128 0x10
 2216 0010 17       		.uleb128 0x17
 2217 0011 00       		.byte	0
 2218 0012 00       		.byte	0
 2219 0013 02       		.uleb128 0x2
ARM GAS  C:\msys64\tmp\ccczchWq.s 			page 40


 2220 0014 24       		.uleb128 0x24
 2221 0015 00       		.byte	0
 2222 0016 0B       		.uleb128 0xb
 2223 0017 0B       		.uleb128 0xb
 2224 0018 3E       		.uleb128 0x3e
 2225 0019 0B       		.uleb128 0xb
 2226 001a 03       		.uleb128 0x3
 2227 001b 0E       		.uleb128 0xe
 2228 001c 00       		.byte	0
 2229 001d 00       		.byte	0
 2230 001e 03       		.uleb128 0x3
 2231 001f 16       		.uleb128 0x16
 2232 0020 00       		.byte	0
 2233 0021 03       		.uleb128 0x3
 2234 0022 0E       		.uleb128 0xe
 2235 0023 3A       		.uleb128 0x3a
 2236 0024 0B       		.uleb128 0xb
 2237 0025 3B       		.uleb128 0x3b
 2238 0026 0B       		.uleb128 0xb
 2239 0027 49       		.uleb128 0x49
 2240 0028 13       		.uleb128 0x13
 2241 0029 00       		.byte	0
 2242 002a 00       		.byte	0
 2243 002b 04       		.uleb128 0x4
 2244 002c 24       		.uleb128 0x24
 2245 002d 00       		.byte	0
 2246 002e 0B       		.uleb128 0xb
 2247 002f 0B       		.uleb128 0xb
 2248 0030 3E       		.uleb128 0x3e
 2249 0031 0B       		.uleb128 0xb
 2250 0032 03       		.uleb128 0x3
 2251 0033 08       		.uleb128 0x8
 2252 0034 00       		.byte	0
 2253 0035 00       		.byte	0
 2254 0036 05       		.uleb128 0x5
 2255 0037 3B       		.uleb128 0x3b
 2256 0038 00       		.byte	0
 2257 0039 03       		.uleb128 0x3
 2258 003a 0E       		.uleb128 0xe
 2259 003b 00       		.byte	0
 2260 003c 00       		.byte	0
 2261 003d 06       		.uleb128 0x6
 2262 003e 16       		.uleb128 0x16
 2263 003f 00       		.byte	0
 2264 0040 03       		.uleb128 0x3
 2265 0041 0E       		.uleb128 0xe
 2266 0042 3A       		.uleb128 0x3a
 2267 0043 0B       		.uleb128 0xb
 2268 0044 3B       		.uleb128 0x3b
 2269 0045 05       		.uleb128 0x5
 2270 0046 49       		.uleb128 0x49
 2271 0047 13       		.uleb128 0x13
 2272 0048 00       		.byte	0
 2273 0049 00       		.byte	0
 2274 004a 07       		.uleb128 0x7
 2275 004b 0F       		.uleb128 0xf
 2276 004c 00       		.byte	0
ARM GAS  C:\msys64\tmp\ccczchWq.s 			page 41


 2277 004d 0B       		.uleb128 0xb
 2278 004e 0B       		.uleb128 0xb
 2279 004f 49       		.uleb128 0x49
 2280 0050 13       		.uleb128 0x13
 2281 0051 00       		.byte	0
 2282 0052 00       		.byte	0
 2283 0053 08       		.uleb128 0x8
 2284 0054 26       		.uleb128 0x26
 2285 0055 00       		.byte	0
 2286 0056 49       		.uleb128 0x49
 2287 0057 13       		.uleb128 0x13
 2288 0058 00       		.byte	0
 2289 0059 00       		.byte	0
 2290 005a 09       		.uleb128 0x9
 2291 005b 04       		.uleb128 0x4
 2292 005c 01       		.byte	0x1
 2293 005d 0B       		.uleb128 0xb
 2294 005e 0B       		.uleb128 0xb
 2295 005f 49       		.uleb128 0x49
 2296 0060 13       		.uleb128 0x13
 2297 0061 3A       		.uleb128 0x3a
 2298 0062 0B       		.uleb128 0xb
 2299 0063 3B       		.uleb128 0x3b
 2300 0064 0B       		.uleb128 0xb
 2301 0065 01       		.uleb128 0x1
 2302 0066 13       		.uleb128 0x13
 2303 0067 00       		.byte	0
 2304 0068 00       		.byte	0
 2305 0069 0A       		.uleb128 0xa
 2306 006a 28       		.uleb128 0x28
 2307 006b 00       		.byte	0
 2308 006c 03       		.uleb128 0x3
 2309 006d 0E       		.uleb128 0xe
 2310 006e 1C       		.uleb128 0x1c
 2311 006f 0B       		.uleb128 0xb
 2312 0070 00       		.byte	0
 2313 0071 00       		.byte	0
 2314 0072 0B       		.uleb128 0xb
 2315 0073 13       		.uleb128 0x13
 2316 0074 01       		.byte	0x1
 2317 0075 03       		.uleb128 0x3
 2318 0076 0E       		.uleb128 0xe
 2319 0077 0B       		.uleb128 0xb
 2320 0078 0B       		.uleb128 0xb
 2321 0079 3A       		.uleb128 0x3a
 2322 007a 0B       		.uleb128 0xb
 2323 007b 3B       		.uleb128 0x3b
 2324 007c 0B       		.uleb128 0xb
 2325 007d 01       		.uleb128 0x1
 2326 007e 13       		.uleb128 0x13
 2327 007f 00       		.byte	0
 2328 0080 00       		.byte	0
 2329 0081 0C       		.uleb128 0xc
 2330 0082 0D       		.uleb128 0xd
 2331 0083 00       		.byte	0
 2332 0084 03       		.uleb128 0x3
 2333 0085 0E       		.uleb128 0xe
ARM GAS  C:\msys64\tmp\ccczchWq.s 			page 42


 2334 0086 3A       		.uleb128 0x3a
 2335 0087 0B       		.uleb128 0xb
 2336 0088 3B       		.uleb128 0x3b
 2337 0089 0B       		.uleb128 0xb
 2338 008a 49       		.uleb128 0x49
 2339 008b 13       		.uleb128 0x13
 2340 008c 38       		.uleb128 0x38
 2341 008d 0B       		.uleb128 0xb
 2342 008e 00       		.byte	0
 2343 008f 00       		.byte	0
 2344 0090 0D       		.uleb128 0xd
 2345 0091 01       		.uleb128 0x1
 2346 0092 01       		.byte	0x1
 2347 0093 49       		.uleb128 0x49
 2348 0094 13       		.uleb128 0x13
 2349 0095 01       		.uleb128 0x1
 2350 0096 13       		.uleb128 0x13
 2351 0097 00       		.byte	0
 2352 0098 00       		.byte	0
 2353 0099 0E       		.uleb128 0xe
 2354 009a 21       		.uleb128 0x21
 2355 009b 00       		.byte	0
 2356 009c 49       		.uleb128 0x49
 2357 009d 13       		.uleb128 0x13
 2358 009e 2F       		.uleb128 0x2f
 2359 009f 0B       		.uleb128 0xb
 2360 00a0 00       		.byte	0
 2361 00a1 00       		.byte	0
 2362 00a2 0F       		.uleb128 0xf
 2363 00a3 04       		.uleb128 0x4
 2364 00a4 01       		.byte	0x1
 2365 00a5 0B       		.uleb128 0xb
 2366 00a6 0B       		.uleb128 0xb
 2367 00a7 49       		.uleb128 0x49
 2368 00a8 13       		.uleb128 0x13
 2369 00a9 3A       		.uleb128 0x3a
 2370 00aa 0B       		.uleb128 0xb
 2371 00ab 3B       		.uleb128 0x3b
 2372 00ac 0B       		.uleb128 0xb
 2373 00ad 6E       		.uleb128 0x6e
 2374 00ae 0E       		.uleb128 0xe
 2375 00af 01       		.uleb128 0x1
 2376 00b0 13       		.uleb128 0x13
 2377 00b1 00       		.byte	0
 2378 00b2 00       		.byte	0
 2379 00b3 10       		.uleb128 0x10
 2380 00b4 39       		.uleb128 0x39
 2381 00b5 00       		.byte	0
 2382 00b6 03       		.uleb128 0x3
 2383 00b7 08       		.uleb128 0x8
 2384 00b8 3A       		.uleb128 0x3a
 2385 00b9 0B       		.uleb128 0xb
 2386 00ba 3B       		.uleb128 0x3b
 2387 00bb 0B       		.uleb128 0xb
 2388 00bc 00       		.byte	0
 2389 00bd 00       		.byte	0
 2390 00be 11       		.uleb128 0x11
ARM GAS  C:\msys64\tmp\ccczchWq.s 			page 43


 2391 00bf 0D       		.uleb128 0xd
 2392 00c0 00       		.byte	0
 2393 00c1 03       		.uleb128 0x3
 2394 00c2 08       		.uleb128 0x8
 2395 00c3 3A       		.uleb128 0x3a
 2396 00c4 0B       		.uleb128 0xb
 2397 00c5 3B       		.uleb128 0x3b
 2398 00c6 0B       		.uleb128 0xb
 2399 00c7 49       		.uleb128 0x49
 2400 00c8 13       		.uleb128 0x13
 2401 00c9 38       		.uleb128 0x38
 2402 00ca 0B       		.uleb128 0xb
 2403 00cb 00       		.byte	0
 2404 00cc 00       		.byte	0
 2405 00cd 12       		.uleb128 0x12
 2406 00ce 2E       		.uleb128 0x2e
 2407 00cf 01       		.byte	0x1
 2408 00d0 03       		.uleb128 0x3
 2409 00d1 0E       		.uleb128 0xe
 2410 00d2 3A       		.uleb128 0x3a
 2411 00d3 0B       		.uleb128 0xb
 2412 00d4 3B       		.uleb128 0x3b
 2413 00d5 0B       		.uleb128 0xb
 2414 00d6 49       		.uleb128 0x49
 2415 00d7 13       		.uleb128 0x13
 2416 00d8 20       		.uleb128 0x20
 2417 00d9 0B       		.uleb128 0xb
 2418 00da 01       		.uleb128 0x1
 2419 00db 13       		.uleb128 0x13
 2420 00dc 00       		.byte	0
 2421 00dd 00       		.byte	0
 2422 00de 13       		.uleb128 0x13
 2423 00df 05       		.uleb128 0x5
 2424 00e0 00       		.byte	0
 2425 00e1 03       		.uleb128 0x3
 2426 00e2 08       		.uleb128 0x8
 2427 00e3 3A       		.uleb128 0x3a
 2428 00e4 0B       		.uleb128 0xb
 2429 00e5 3B       		.uleb128 0x3b
 2430 00e6 0B       		.uleb128 0xb
 2431 00e7 49       		.uleb128 0x49
 2432 00e8 13       		.uleb128 0x13
 2433 00e9 00       		.byte	0
 2434 00ea 00       		.byte	0
 2435 00eb 14       		.uleb128 0x14
 2436 00ec 2E       		.uleb128 0x2e
 2437 00ed 01       		.byte	0x1
 2438 00ee 03       		.uleb128 0x3
 2439 00ef 0E       		.uleb128 0xe
 2440 00f0 3A       		.uleb128 0x3a
 2441 00f1 0B       		.uleb128 0xb
 2442 00f2 3B       		.uleb128 0x3b
 2443 00f3 05       		.uleb128 0x5
 2444 00f4 49       		.uleb128 0x49
 2445 00f5 13       		.uleb128 0x13
 2446 00f6 20       		.uleb128 0x20
 2447 00f7 0B       		.uleb128 0xb
ARM GAS  C:\msys64\tmp\ccczchWq.s 			page 44


 2448 00f8 01       		.uleb128 0x1
 2449 00f9 13       		.uleb128 0x13
 2450 00fa 00       		.byte	0
 2451 00fb 00       		.byte	0
 2452 00fc 15       		.uleb128 0x15
 2453 00fd 05       		.uleb128 0x5
 2454 00fe 00       		.byte	0
 2455 00ff 03       		.uleb128 0x3
 2456 0100 08       		.uleb128 0x8
 2457 0101 3A       		.uleb128 0x3a
 2458 0102 0B       		.uleb128 0xb
 2459 0103 3B       		.uleb128 0x3b
 2460 0104 05       		.uleb128 0x5
 2461 0105 49       		.uleb128 0x49
 2462 0106 13       		.uleb128 0x13
 2463 0107 00       		.byte	0
 2464 0108 00       		.byte	0
 2465 0109 16       		.uleb128 0x16
 2466 010a 05       		.uleb128 0x5
 2467 010b 00       		.byte	0
 2468 010c 03       		.uleb128 0x3
 2469 010d 0E       		.uleb128 0xe
 2470 010e 3A       		.uleb128 0x3a
 2471 010f 0B       		.uleb128 0xb
 2472 0110 3B       		.uleb128 0x3b
 2473 0111 0B       		.uleb128 0xb
 2474 0112 49       		.uleb128 0x49
 2475 0113 13       		.uleb128 0x13
 2476 0114 00       		.byte	0
 2477 0115 00       		.byte	0
 2478 0116 17       		.uleb128 0x17
 2479 0117 34       		.uleb128 0x34
 2480 0118 00       		.byte	0
 2481 0119 03       		.uleb128 0x3
 2482 011a 08       		.uleb128 0x8
 2483 011b 3A       		.uleb128 0x3a
 2484 011c 0B       		.uleb128 0xb
 2485 011d 3B       		.uleb128 0x3b
 2486 011e 0B       		.uleb128 0xb
 2487 011f 49       		.uleb128 0x49
 2488 0120 13       		.uleb128 0x13
 2489 0121 00       		.byte	0
 2490 0122 00       		.byte	0
 2491 0123 18       		.uleb128 0x18
 2492 0124 34       		.uleb128 0x34
 2493 0125 00       		.byte	0
 2494 0126 03       		.uleb128 0x3
 2495 0127 0E       		.uleb128 0xe
 2496 0128 3A       		.uleb128 0x3a
 2497 0129 0B       		.uleb128 0xb
 2498 012a 3B       		.uleb128 0x3b
 2499 012b 0B       		.uleb128 0xb
 2500 012c 49       		.uleb128 0x49
 2501 012d 13       		.uleb128 0x13
 2502 012e 00       		.byte	0
 2503 012f 00       		.byte	0
 2504 0130 19       		.uleb128 0x19
ARM GAS  C:\msys64\tmp\ccczchWq.s 			page 45


 2505 0131 34       		.uleb128 0x34
 2506 0132 00       		.byte	0
 2507 0133 03       		.uleb128 0x3
 2508 0134 08       		.uleb128 0x8
 2509 0135 3A       		.uleb128 0x3a
 2510 0136 0B       		.uleb128 0xb
 2511 0137 3B       		.uleb128 0x3b
 2512 0138 05       		.uleb128 0x5
 2513 0139 49       		.uleb128 0x49
 2514 013a 13       		.uleb128 0x13
 2515 013b 00       		.byte	0
 2516 013c 00       		.byte	0
 2517 013d 1A       		.uleb128 0x1a
 2518 013e 2E       		.uleb128 0x2e
 2519 013f 01       		.byte	0x1
 2520 0140 3F       		.uleb128 0x3f
 2521 0141 19       		.uleb128 0x19
 2522 0142 03       		.uleb128 0x3
 2523 0143 0E       		.uleb128 0xe
 2524 0144 3A       		.uleb128 0x3a
 2525 0145 0B       		.uleb128 0xb
 2526 0146 3B       		.uleb128 0x3b
 2527 0147 0B       		.uleb128 0xb
 2528 0148 11       		.uleb128 0x11
 2529 0149 01       		.uleb128 0x1
 2530 014a 12       		.uleb128 0x12
 2531 014b 06       		.uleb128 0x6
 2532 014c 40       		.uleb128 0x40
 2533 014d 18       		.uleb128 0x18
 2534 014e 9742     		.uleb128 0x2117
 2535 0150 19       		.uleb128 0x19
 2536 0151 01       		.uleb128 0x1
 2537 0152 13       		.uleb128 0x13
 2538 0153 00       		.byte	0
 2539 0154 00       		.byte	0
 2540 0155 1B       		.uleb128 0x1b
 2541 0156 05       		.uleb128 0x5
 2542 0157 00       		.byte	0
 2543 0158 03       		.uleb128 0x3
 2544 0159 0E       		.uleb128 0xe
 2545 015a 3A       		.uleb128 0x3a
 2546 015b 0B       		.uleb128 0xb
 2547 015c 3B       		.uleb128 0x3b
 2548 015d 0B       		.uleb128 0xb
 2549 015e 49       		.uleb128 0x49
 2550 015f 13       		.uleb128 0x13
 2551 0160 02       		.uleb128 0x2
 2552 0161 18       		.uleb128 0x18
 2553 0162 00       		.byte	0
 2554 0163 00       		.byte	0
 2555 0164 1C       		.uleb128 0x1c
 2556 0165 05       		.uleb128 0x5
 2557 0166 00       		.byte	0
 2558 0167 03       		.uleb128 0x3
 2559 0168 08       		.uleb128 0x8
 2560 0169 3A       		.uleb128 0x3a
 2561 016a 0B       		.uleb128 0xb
ARM GAS  C:\msys64\tmp\ccczchWq.s 			page 46


 2562 016b 3B       		.uleb128 0x3b
 2563 016c 0B       		.uleb128 0xb
 2564 016d 49       		.uleb128 0x49
 2565 016e 13       		.uleb128 0x13
 2566 016f 02       		.uleb128 0x2
 2567 0170 18       		.uleb128 0x18
 2568 0171 00       		.byte	0
 2569 0172 00       		.byte	0
 2570 0173 1D       		.uleb128 0x1d
 2571 0174 2E       		.uleb128 0x2e
 2572 0175 01       		.byte	0x1
 2573 0176 3F       		.uleb128 0x3f
 2574 0177 19       		.uleb128 0x19
 2575 0178 03       		.uleb128 0x3
 2576 0179 08       		.uleb128 0x8
 2577 017a 3A       		.uleb128 0x3a
 2578 017b 0B       		.uleb128 0xb
 2579 017c 3B       		.uleb128 0x3b
 2580 017d 0B       		.uleb128 0xb
 2581 017e 6E       		.uleb128 0x6e
 2582 017f 0E       		.uleb128 0xe
 2583 0180 49       		.uleb128 0x49
 2584 0181 13       		.uleb128 0x13
 2585 0182 11       		.uleb128 0x11
 2586 0183 01       		.uleb128 0x1
 2587 0184 12       		.uleb128 0x12
 2588 0185 06       		.uleb128 0x6
 2589 0186 40       		.uleb128 0x40
 2590 0187 18       		.uleb128 0x18
 2591 0188 9742     		.uleb128 0x2117
 2592 018a 19       		.uleb128 0x19
 2593 018b 01       		.uleb128 0x1
 2594 018c 13       		.uleb128 0x13
 2595 018d 00       		.byte	0
 2596 018e 00       		.byte	0
 2597 018f 1E       		.uleb128 0x1e
 2598 0190 05       		.uleb128 0x5
 2599 0191 00       		.byte	0
 2600 0192 03       		.uleb128 0x3
 2601 0193 0E       		.uleb128 0xe
 2602 0194 3A       		.uleb128 0x3a
 2603 0195 0B       		.uleb128 0xb
 2604 0196 3B       		.uleb128 0x3b
 2605 0197 0B       		.uleb128 0xb
 2606 0198 49       		.uleb128 0x49
 2607 0199 13       		.uleb128 0x13
 2608 019a 02       		.uleb128 0x2
 2609 019b 17       		.uleb128 0x17
 2610 019c 00       		.byte	0
 2611 019d 00       		.byte	0
 2612 019e 1F       		.uleb128 0x1f
 2613 019f 1D       		.uleb128 0x1d
 2614 01a0 01       		.byte	0x1
 2615 01a1 31       		.uleb128 0x31
 2616 01a2 13       		.uleb128 0x13
 2617 01a3 11       		.uleb128 0x11
 2618 01a4 01       		.uleb128 0x1
ARM GAS  C:\msys64\tmp\ccczchWq.s 			page 47


 2619 01a5 12       		.uleb128 0x12
 2620 01a6 06       		.uleb128 0x6
 2621 01a7 58       		.uleb128 0x58
 2622 01a8 0B       		.uleb128 0xb
 2623 01a9 59       		.uleb128 0x59
 2624 01aa 0B       		.uleb128 0xb
 2625 01ab 01       		.uleb128 0x1
 2626 01ac 13       		.uleb128 0x13
 2627 01ad 00       		.byte	0
 2628 01ae 00       		.byte	0
 2629 01af 20       		.uleb128 0x20
 2630 01b0 05       		.uleb128 0x5
 2631 01b1 00       		.byte	0
 2632 01b2 31       		.uleb128 0x31
 2633 01b3 13       		.uleb128 0x13
 2634 01b4 02       		.uleb128 0x2
 2635 01b5 17       		.uleb128 0x17
 2636 01b6 00       		.byte	0
 2637 01b7 00       		.byte	0
 2638 01b8 21       		.uleb128 0x21
 2639 01b9 0B       		.uleb128 0xb
 2640 01ba 01       		.byte	0x1
 2641 01bb 11       		.uleb128 0x11
 2642 01bc 01       		.uleb128 0x1
 2643 01bd 12       		.uleb128 0x12
 2644 01be 06       		.uleb128 0x6
 2645 01bf 00       		.byte	0
 2646 01c0 00       		.byte	0
 2647 01c1 22       		.uleb128 0x22
 2648 01c2 34       		.uleb128 0x34
 2649 01c3 00       		.byte	0
 2650 01c4 31       		.uleb128 0x31
 2651 01c5 13       		.uleb128 0x13
 2652 01c6 02       		.uleb128 0x2
 2653 01c7 17       		.uleb128 0x17
 2654 01c8 00       		.byte	0
 2655 01c9 00       		.byte	0
 2656 01ca 23       		.uleb128 0x23
 2657 01cb 34       		.uleb128 0x34
 2658 01cc 00       		.byte	0
 2659 01cd 31       		.uleb128 0x31
 2660 01ce 13       		.uleb128 0x13
 2661 01cf 00       		.byte	0
 2662 01d0 00       		.byte	0
 2663 01d1 24       		.uleb128 0x24
 2664 01d2 1D       		.uleb128 0x1d
 2665 01d3 01       		.byte	0x1
 2666 01d4 31       		.uleb128 0x31
 2667 01d5 13       		.uleb128 0x13
 2668 01d6 52       		.uleb128 0x52
 2669 01d7 01       		.uleb128 0x1
 2670 01d8 55       		.uleb128 0x55
 2671 01d9 17       		.uleb128 0x17
 2672 01da 58       		.uleb128 0x58
 2673 01db 0B       		.uleb128 0xb
 2674 01dc 59       		.uleb128 0x59
 2675 01dd 0B       		.uleb128 0xb
ARM GAS  C:\msys64\tmp\ccczchWq.s 			page 48


 2676 01de 00       		.byte	0
 2677 01df 00       		.byte	0
 2678 01e0 25       		.uleb128 0x25
 2679 01e1 05       		.uleb128 0x5
 2680 01e2 00       		.byte	0
 2681 01e3 31       		.uleb128 0x31
 2682 01e4 13       		.uleb128 0x13
 2683 01e5 00       		.byte	0
 2684 01e6 00       		.byte	0
 2685 01e7 26       		.uleb128 0x26
 2686 01e8 1D       		.uleb128 0x1d
 2687 01e9 01       		.byte	0x1
 2688 01ea 31       		.uleb128 0x31
 2689 01eb 13       		.uleb128 0x13
 2690 01ec 11       		.uleb128 0x11
 2691 01ed 01       		.uleb128 0x1
 2692 01ee 12       		.uleb128 0x12
 2693 01ef 06       		.uleb128 0x6
 2694 01f0 58       		.uleb128 0x58
 2695 01f1 0B       		.uleb128 0xb
 2696 01f2 59       		.uleb128 0x59
 2697 01f3 0B       		.uleb128 0xb
 2698 01f4 00       		.byte	0
 2699 01f5 00       		.byte	0
 2700 01f6 27       		.uleb128 0x27
 2701 01f7 1D       		.uleb128 0x1d
 2702 01f8 01       		.byte	0x1
 2703 01f9 31       		.uleb128 0x31
 2704 01fa 13       		.uleb128 0x13
 2705 01fb 52       		.uleb128 0x52
 2706 01fc 01       		.uleb128 0x1
 2707 01fd 55       		.uleb128 0x55
 2708 01fe 17       		.uleb128 0x17
 2709 01ff 58       		.uleb128 0x58
 2710 0200 0B       		.uleb128 0xb
 2711 0201 59       		.uleb128 0x59
 2712 0202 05       		.uleb128 0x5
 2713 0203 00       		.byte	0
 2714 0204 00       		.byte	0
 2715 0205 28       		.uleb128 0x28
 2716 0206 2E       		.uleb128 0x2e
 2717 0207 01       		.byte	0x1
 2718 0208 3F       		.uleb128 0x3f
 2719 0209 19       		.uleb128 0x19
 2720 020a 03       		.uleb128 0x3
 2721 020b 0E       		.uleb128 0xe
 2722 020c 3A       		.uleb128 0x3a
 2723 020d 0B       		.uleb128 0xb
 2724 020e 3B       		.uleb128 0x3b
 2725 020f 0B       		.uleb128 0xb
 2726 0210 6E       		.uleb128 0x6e
 2727 0211 0E       		.uleb128 0xe
 2728 0212 49       		.uleb128 0x49
 2729 0213 13       		.uleb128 0x13
 2730 0214 11       		.uleb128 0x11
 2731 0215 01       		.uleb128 0x1
 2732 0216 12       		.uleb128 0x12
ARM GAS  C:\msys64\tmp\ccczchWq.s 			page 49


 2733 0217 06       		.uleb128 0x6
 2734 0218 40       		.uleb128 0x40
 2735 0219 18       		.uleb128 0x18
 2736 021a 9742     		.uleb128 0x2117
 2737 021c 19       		.uleb128 0x19
 2738 021d 01       		.uleb128 0x1
 2739 021e 13       		.uleb128 0x13
 2740 021f 00       		.byte	0
 2741 0220 00       		.byte	0
 2742 0221 29       		.uleb128 0x29
 2743 0222 05       		.uleb128 0x5
 2744 0223 00       		.byte	0
 2745 0224 03       		.uleb128 0x3
 2746 0225 08       		.uleb128 0x8
 2747 0226 3A       		.uleb128 0x3a
 2748 0227 0B       		.uleb128 0xb
 2749 0228 3B       		.uleb128 0x3b
 2750 0229 0B       		.uleb128 0xb
 2751 022a 49       		.uleb128 0x49
 2752 022b 13       		.uleb128 0x13
 2753 022c 02       		.uleb128 0x2
 2754 022d 17       		.uleb128 0x17
 2755 022e 00       		.byte	0
 2756 022f 00       		.byte	0
 2757 0230 2A       		.uleb128 0x2a
 2758 0231 34       		.uleb128 0x34
 2759 0232 00       		.byte	0
 2760 0233 03       		.uleb128 0x3
 2761 0234 08       		.uleb128 0x8
 2762 0235 3A       		.uleb128 0x3a
 2763 0236 0B       		.uleb128 0xb
 2764 0237 3B       		.uleb128 0x3b
 2765 0238 0B       		.uleb128 0xb
 2766 0239 49       		.uleb128 0x49
 2767 023a 13       		.uleb128 0x13
 2768 023b 02       		.uleb128 0x2
 2769 023c 17       		.uleb128 0x17
 2770 023d 00       		.byte	0
 2771 023e 00       		.byte	0
 2772 023f 2B       		.uleb128 0x2b
 2773 0240 0B       		.uleb128 0xb
 2774 0241 01       		.byte	0x1
 2775 0242 55       		.uleb128 0x55
 2776 0243 17       		.uleb128 0x17
 2777 0244 00       		.byte	0
 2778 0245 00       		.byte	0
 2779 0246 2C       		.uleb128 0x2c
 2780 0247 34       		.uleb128 0x34
 2781 0248 00       		.byte	0
 2782 0249 03       		.uleb128 0x3
 2783 024a 0E       		.uleb128 0xe
 2784 024b 3A       		.uleb128 0x3a
 2785 024c 0B       		.uleb128 0xb
 2786 024d 3B       		.uleb128 0x3b
 2787 024e 0B       		.uleb128 0xb
 2788 024f 49       		.uleb128 0x49
 2789 0250 13       		.uleb128 0x13
ARM GAS  C:\msys64\tmp\ccczchWq.s 			page 50


 2790 0251 02       		.uleb128 0x2
 2791 0252 17       		.uleb128 0x17
 2792 0253 00       		.byte	0
 2793 0254 00       		.byte	0
 2794 0255 2D       		.uleb128 0x2d
 2795 0256 898201   		.uleb128 0x4109
 2796 0259 01       		.byte	0x1
 2797 025a 11       		.uleb128 0x11
 2798 025b 01       		.uleb128 0x1
 2799 025c 31       		.uleb128 0x31
 2800 025d 13       		.uleb128 0x13
 2801 025e 01       		.uleb128 0x1
 2802 025f 13       		.uleb128 0x13
 2803 0260 00       		.byte	0
 2804 0261 00       		.byte	0
 2805 0262 2E       		.uleb128 0x2e
 2806 0263 8A8201   		.uleb128 0x410a
 2807 0266 00       		.byte	0
 2808 0267 02       		.uleb128 0x2
 2809 0268 18       		.uleb128 0x18
 2810 0269 9142     		.uleb128 0x2111
 2811 026b 18       		.uleb128 0x18
 2812 026c 00       		.byte	0
 2813 026d 00       		.byte	0
 2814 026e 2F       		.uleb128 0x2f
 2815 026f 898201   		.uleb128 0x4109
 2816 0272 01       		.byte	0x1
 2817 0273 11       		.uleb128 0x11
 2818 0274 01       		.uleb128 0x1
 2819 0275 31       		.uleb128 0x31
 2820 0276 13       		.uleb128 0x13
 2821 0277 00       		.byte	0
 2822 0278 00       		.byte	0
 2823 0279 30       		.uleb128 0x30
 2824 027a 1D       		.uleb128 0x1d
 2825 027b 01       		.byte	0x1
 2826 027c 31       		.uleb128 0x31
 2827 027d 13       		.uleb128 0x13
 2828 027e 52       		.uleb128 0x52
 2829 027f 01       		.uleb128 0x1
 2830 0280 55       		.uleb128 0x55
 2831 0281 17       		.uleb128 0x17
 2832 0282 58       		.uleb128 0x58
 2833 0283 0B       		.uleb128 0xb
 2834 0284 59       		.uleb128 0x59
 2835 0285 0B       		.uleb128 0xb
 2836 0286 01       		.uleb128 0x1
 2837 0287 13       		.uleb128 0x13
 2838 0288 00       		.byte	0
 2839 0289 00       		.byte	0
 2840 028a 31       		.uleb128 0x31
 2841 028b 1D       		.uleb128 0x1d
 2842 028c 01       		.byte	0x1
 2843 028d 31       		.uleb128 0x31
 2844 028e 13       		.uleb128 0x13
 2845 028f 11       		.uleb128 0x11
 2846 0290 01       		.uleb128 0x1
ARM GAS  C:\msys64\tmp\ccczchWq.s 			page 51


 2847 0291 12       		.uleb128 0x12
 2848 0292 06       		.uleb128 0x6
 2849 0293 58       		.uleb128 0x58
 2850 0294 0B       		.uleb128 0xb
 2851 0295 59       		.uleb128 0x59
 2852 0296 05       		.uleb128 0x5
 2853 0297 00       		.byte	0
 2854 0298 00       		.byte	0
 2855 0299 32       		.uleb128 0x32
 2856 029a 898201   		.uleb128 0x4109
 2857 029d 01       		.byte	0x1
 2858 029e 11       		.uleb128 0x11
 2859 029f 01       		.uleb128 0x1
 2860 02a0 9542     		.uleb128 0x2115
 2861 02a2 19       		.uleb128 0x19
 2862 02a3 31       		.uleb128 0x31
 2863 02a4 13       		.uleb128 0x13
 2864 02a5 00       		.byte	0
 2865 02a6 00       		.byte	0
 2866 02a7 33       		.uleb128 0x33
 2867 02a8 2E       		.uleb128 0x2e
 2868 02a9 01       		.byte	0x1
 2869 02aa 3F       		.uleb128 0x3f
 2870 02ab 19       		.uleb128 0x19
 2871 02ac 03       		.uleb128 0x3
 2872 02ad 0E       		.uleb128 0xe
 2873 02ae 3A       		.uleb128 0x3a
 2874 02af 0B       		.uleb128 0xb
 2875 02b0 3B       		.uleb128 0x3b
 2876 02b1 0B       		.uleb128 0xb
 2877 02b2 20       		.uleb128 0x20
 2878 02b3 0B       		.uleb128 0xb
 2879 02b4 01       		.uleb128 0x1
 2880 02b5 13       		.uleb128 0x13
 2881 02b6 00       		.byte	0
 2882 02b7 00       		.byte	0
 2883 02b8 34       		.uleb128 0x34
 2884 02b9 2E       		.uleb128 0x2e
 2885 02ba 01       		.byte	0x1
 2886 02bb 31       		.uleb128 0x31
 2887 02bc 13       		.uleb128 0x13
 2888 02bd 11       		.uleb128 0x11
 2889 02be 01       		.uleb128 0x1
 2890 02bf 12       		.uleb128 0x12
 2891 02c0 06       		.uleb128 0x6
 2892 02c1 40       		.uleb128 0x40
 2893 02c2 18       		.uleb128 0x18
 2894 02c3 9742     		.uleb128 0x2117
 2895 02c5 19       		.uleb128 0x19
 2896 02c6 01       		.uleb128 0x1
 2897 02c7 13       		.uleb128 0x13
 2898 02c8 00       		.byte	0
 2899 02c9 00       		.byte	0
 2900 02ca 35       		.uleb128 0x35
 2901 02cb 05       		.uleb128 0x5
 2902 02cc 00       		.byte	0
 2903 02cd 31       		.uleb128 0x31
ARM GAS  C:\msys64\tmp\ccczchWq.s 			page 52


 2904 02ce 13       		.uleb128 0x13
 2905 02cf 02       		.uleb128 0x2
 2906 02d0 18       		.uleb128 0x18
 2907 02d1 00       		.byte	0
 2908 02d2 00       		.byte	0
 2909 02d3 36       		.uleb128 0x36
 2910 02d4 34       		.uleb128 0x34
 2911 02d5 00       		.byte	0
 2912 02d6 03       		.uleb128 0x3
 2913 02d7 0E       		.uleb128 0xe
 2914 02d8 3A       		.uleb128 0x3a
 2915 02d9 0B       		.uleb128 0xb
 2916 02da 3B       		.uleb128 0x3b
 2917 02db 0B       		.uleb128 0xb
 2918 02dc 49       		.uleb128 0x49
 2919 02dd 13       		.uleb128 0x13
 2920 02de 3F       		.uleb128 0x3f
 2921 02df 19       		.uleb128 0x19
 2922 02e0 3C       		.uleb128 0x3c
 2923 02e1 19       		.uleb128 0x19
 2924 02e2 00       		.byte	0
 2925 02e3 00       		.byte	0
 2926 02e4 37       		.uleb128 0x37
 2927 02e5 21       		.uleb128 0x21
 2928 02e6 00       		.byte	0
 2929 02e7 49       		.uleb128 0x49
 2930 02e8 13       		.uleb128 0x13
 2931 02e9 2F       		.uleb128 0x2f
 2932 02ea 05       		.uleb128 0x5
 2933 02eb 00       		.byte	0
 2934 02ec 00       		.byte	0
 2935 02ed 38       		.uleb128 0x38
 2936 02ee 34       		.uleb128 0x34
 2937 02ef 00       		.byte	0
 2938 02f0 03       		.uleb128 0x3
 2939 02f1 0E       		.uleb128 0xe
 2940 02f2 3A       		.uleb128 0x3a
 2941 02f3 0B       		.uleb128 0xb
 2942 02f4 3B       		.uleb128 0x3b
 2943 02f5 05       		.uleb128 0x5
 2944 02f6 49       		.uleb128 0x49
 2945 02f7 13       		.uleb128 0x13
 2946 02f8 3F       		.uleb128 0x3f
 2947 02f9 19       		.uleb128 0x19
 2948 02fa 3C       		.uleb128 0x3c
 2949 02fb 19       		.uleb128 0x19
 2950 02fc 00       		.byte	0
 2951 02fd 00       		.byte	0
 2952 02fe 39       		.uleb128 0x39
 2953 02ff 34       		.uleb128 0x34
 2954 0300 00       		.byte	0
 2955 0301 03       		.uleb128 0x3
 2956 0302 0E       		.uleb128 0xe
 2957 0303 3A       		.uleb128 0x3a
 2958 0304 0B       		.uleb128 0xb
 2959 0305 3B       		.uleb128 0x3b
 2960 0306 0B       		.uleb128 0xb
ARM GAS  C:\msys64\tmp\ccczchWq.s 			page 53


 2961 0307 49       		.uleb128 0x49
 2962 0308 13       		.uleb128 0x13
 2963 0309 02       		.uleb128 0x2
 2964 030a 18       		.uleb128 0x18
 2965 030b 00       		.byte	0
 2966 030c 00       		.byte	0
 2967 030d 00       		.byte	0
 2968              		.section	.debug_loc,"",%progbits
 2969              	.Ldebug_loc0:
 2970              	.LLST0:
 2971 0000 1C000000 		.4byte	.LVL1-.Ltext0
 2972 0004 3A000000 		.4byte	.LVL3-.Ltext0
 2973 0008 0200     		.2byte	0x2
 2974 000a 90       		.byte	0x90
 2975 000b 40       		.uleb128 0x40
 2976 000c 3A000000 		.4byte	.LVL3-.Ltext0
 2977 0010 7E000000 		.4byte	.LVL14-.Ltext0
 2978 0014 0600     		.2byte	0x6
 2979 0016 F3       		.byte	0xf3
 2980 0017 03       		.uleb128 0x3
 2981 0018 F5       		.byte	0xf5
 2982 0019 40       		.uleb128 0x40
 2983 001a 25       		.uleb128 0x25
 2984 001b 9F       		.byte	0x9f
 2985 001c 7E000000 		.4byte	.LVL14-.Ltext0
 2986 0020 8C000000 		.4byte	.LVL15-.Ltext0
 2987 0024 0200     		.2byte	0x2
 2988 0026 90       		.byte	0x90
 2989 0027 40       		.uleb128 0x40
 2990 0028 8C000000 		.4byte	.LVL15-.Ltext0
 2991 002c E4000000 		.4byte	.LVL26-.Ltext0
 2992 0030 0600     		.2byte	0x6
 2993 0032 F3       		.byte	0xf3
 2994 0033 03       		.uleb128 0x3
 2995 0034 F5       		.byte	0xf5
 2996 0035 40       		.uleb128 0x40
 2997 0036 25       		.uleb128 0x25
 2998 0037 9F       		.byte	0x9f
 2999 0038 E4000000 		.4byte	.LVL26-.Ltext0
 3000 003c F0000000 		.4byte	.LVL27-.Ltext0
 3001 0040 0200     		.2byte	0x2
 3002 0042 90       		.byte	0x90
 3003 0043 40       		.uleb128 0x40
 3004 0044 F0000000 		.4byte	.LVL27-.Ltext0
 3005 0048 54010000 		.4byte	.LVL42-.Ltext0
 3006 004c 0600     		.2byte	0x6
 3007 004e F3       		.byte	0xf3
 3008 004f 03       		.uleb128 0x3
 3009 0050 F5       		.byte	0xf5
 3010 0051 40       		.uleb128 0x40
 3011 0052 25       		.uleb128 0x25
 3012 0053 9F       		.byte	0x9f
 3013 0054 54010000 		.4byte	.LVL42-.Ltext0
 3014 0058 64010000 		.4byte	.LVL43-.Ltext0
 3015 005c 0200     		.2byte	0x2
 3016 005e 90       		.byte	0x90
 3017 005f 40       		.uleb128 0x40
ARM GAS  C:\msys64\tmp\ccczchWq.s 			page 54


 3018 0060 64010000 		.4byte	.LVL43-.Ltext0
 3019 0064 70010000 		.4byte	.LVL44-.Ltext0
 3020 0068 0600     		.2byte	0x6
 3021 006a F3       		.byte	0xf3
 3022 006b 03       		.uleb128 0x3
 3023 006c F5       		.byte	0xf5
 3024 006d 40       		.uleb128 0x40
 3025 006e 25       		.uleb128 0x25
 3026 006f 9F       		.byte	0x9f
 3027 0070 70010000 		.4byte	.LVL44-.Ltext0
 3028 0074 70010000 		.4byte	.LVL45-.Ltext0
 3029 0078 0200     		.2byte	0x2
 3030 007a 90       		.byte	0x90
 3031 007b 40       		.uleb128 0x40
 3032 007c 70010000 		.4byte	.LVL45-.Ltext0
 3033 0080 72010000 		.4byte	.LVL46-.Ltext0
 3034 0084 0600     		.2byte	0x6
 3035 0086 F3       		.byte	0xf3
 3036 0087 03       		.uleb128 0x3
 3037 0088 F5       		.byte	0xf5
 3038 0089 40       		.uleb128 0x40
 3039 008a 25       		.uleb128 0x25
 3040 008b 9F       		.byte	0x9f
 3041 008c 72010000 		.4byte	.LVL46-.Ltext0
 3042 0090 76010000 		.4byte	.LVL47-.Ltext0
 3043 0094 0200     		.2byte	0x2
 3044 0096 90       		.byte	0x90
 3045 0097 40       		.uleb128 0x40
 3046 0098 76010000 		.4byte	.LVL47-.Ltext0
 3047 009c 94010000 		.4byte	.LFE282-.Ltext0
 3048 00a0 0600     		.2byte	0x6
 3049 00a2 F3       		.byte	0xf3
 3050 00a3 03       		.uleb128 0x3
 3051 00a4 F5       		.byte	0xf5
 3052 00a5 40       		.uleb128 0x40
 3053 00a6 25       		.uleb128 0x25
 3054 00a7 9F       		.byte	0x9f
 3055 00a8 00000000 		.4byte	0
 3056 00ac 00000000 		.4byte	0
 3057              	.LLST1:
 3058 00b0 1C000000 		.4byte	.LVL1-.Ltext0
 3059 00b4 52000000 		.4byte	.LVL7-.Ltext0
 3060 00b8 0100     		.2byte	0x1
 3061 00ba 50       		.byte	0x50
 3062 00bb 52000000 		.4byte	.LVL7-.Ltext0
 3063 00bf 7E000000 		.4byte	.LVL14-.Ltext0
 3064 00c3 0400     		.2byte	0x4
 3065 00c5 F3       		.byte	0xf3
 3066 00c6 01       		.uleb128 0x1
 3067 00c7 50       		.byte	0x50
 3068 00c8 9F       		.byte	0x9f
 3069 00c9 7E000000 		.4byte	.LVL14-.Ltext0
 3070 00cd A8000000 		.4byte	.LVL18-.Ltext0
 3071 00d1 0100     		.2byte	0x1
 3072 00d3 50       		.byte	0x50
 3073 00d4 A8000000 		.4byte	.LVL18-.Ltext0
 3074 00d8 E4000000 		.4byte	.LVL26-.Ltext0
ARM GAS  C:\msys64\tmp\ccczchWq.s 			page 55


 3075 00dc 0400     		.2byte	0x4
 3076 00de F3       		.byte	0xf3
 3077 00df 01       		.uleb128 0x1
 3078 00e0 50       		.byte	0x50
 3079 00e1 9F       		.byte	0x9f
 3080 00e2 E4000000 		.4byte	.LVL26-.Ltext0
 3081 00e6 14010000 		.4byte	.LVL32-.Ltext0
 3082 00ea 0100     		.2byte	0x1
 3083 00ec 50       		.byte	0x50
 3084 00ed 14010000 		.4byte	.LVL32-.Ltext0
 3085 00f1 1A010000 		.4byte	.LVL33-.Ltext0
 3086 00f5 0400     		.2byte	0x4
 3087 00f7 F3       		.byte	0xf3
 3088 00f8 01       		.uleb128 0x1
 3089 00f9 50       		.byte	0x50
 3090 00fa 9F       		.byte	0x9f
 3091 00fb 1A010000 		.4byte	.LVL33-.Ltext0
 3092 00ff 24010000 		.4byte	.LVL35-.Ltext0
 3093 0103 0100     		.2byte	0x1
 3094 0105 50       		.byte	0x50
 3095 0106 24010000 		.4byte	.LVL35-.Ltext0
 3096 010a 26010000 		.4byte	.LVL36-.Ltext0
 3097 010e 0400     		.2byte	0x4
 3098 0110 F3       		.byte	0xf3
 3099 0111 01       		.uleb128 0x1
 3100 0112 50       		.byte	0x50
 3101 0113 9F       		.byte	0x9f
 3102 0114 26010000 		.4byte	.LVL36-.Ltext0
 3103 0118 2C010000 		.4byte	.LVL37-.Ltext0
 3104 011c 0100     		.2byte	0x1
 3105 011e 50       		.byte	0x50
 3106 011f 2C010000 		.4byte	.LVL37-.Ltext0
 3107 0123 54010000 		.4byte	.LVL42-.Ltext0
 3108 0127 0400     		.2byte	0x4
 3109 0129 F3       		.byte	0xf3
 3110 012a 01       		.uleb128 0x1
 3111 012b 50       		.byte	0x50
 3112 012c 9F       		.byte	0x9f
 3113 012d 54010000 		.4byte	.LVL42-.Ltext0
 3114 0131 76010000 		.4byte	.LVL47-.Ltext0
 3115 0135 0100     		.2byte	0x1
 3116 0137 50       		.byte	0x50
 3117 0138 76010000 		.4byte	.LVL47-.Ltext0
 3118 013c 94010000 		.4byte	.LFE282-.Ltext0
 3119 0140 0400     		.2byte	0x4
 3120 0142 F3       		.byte	0xf3
 3121 0143 01       		.uleb128 0x1
 3122 0144 50       		.byte	0x50
 3123 0145 9F       		.byte	0x9f
 3124 0146 00000000 		.4byte	0
 3125 014a 00000000 		.4byte	0
 3126              	.LLST2:
 3127 014e 2C000000 		.4byte	.LVL2-.Ltext0
 3128 0152 3A000000 		.4byte	.LVL3-.Ltext0
 3129 0156 0200     		.2byte	0x2
 3130 0158 90       		.byte	0x90
 3131 0159 40       		.uleb128 0x40
ARM GAS  C:\msys64\tmp\ccczchWq.s 			page 56


 3132 015a 3A000000 		.4byte	.LVL3-.Ltext0
 3133 015e 7E000000 		.4byte	.LVL14-.Ltext0
 3134 0162 0600     		.2byte	0x6
 3135 0164 F3       		.byte	0xf3
 3136 0165 03       		.uleb128 0x3
 3137 0166 F5       		.byte	0xf5
 3138 0167 40       		.uleb128 0x40
 3139 0168 25       		.uleb128 0x25
 3140 0169 9F       		.byte	0x9f
 3141 016a 00000000 		.4byte	0
 3142 016e 00000000 		.4byte	0
 3143              	.LLST3:
 3144 0172 2C000000 		.4byte	.LVL2-.Ltext0
 3145 0176 3A000000 		.4byte	.LVL3-.Ltext0
 3146 017a 0C00     		.2byte	0xc
 3147 017c F5       		.byte	0xf5
 3148 017d 40       		.uleb128 0x40
 3149 017e 25       		.uleb128 0x25
 3150 017f F5       		.byte	0xf5
 3151 0180 40       		.uleb128 0x40
 3152 0181 25       		.uleb128 0x25
 3153 0182 F7       		.byte	0xf7
 3154 0183 2C       		.uleb128 0x2c
 3155 0184 F7       		.byte	0xf7
 3156 0185 25       		.uleb128 0x25
 3157 0186 1C       		.byte	0x1c
 3158 0187 9F       		.byte	0x9f
 3159 0188 3A000000 		.4byte	.LVL3-.Ltext0
 3160 018c 7E000000 		.4byte	.LVL14-.Ltext0
 3161 0190 1000     		.2byte	0x10
 3162 0192 F3       		.byte	0xf3
 3163 0193 03       		.uleb128 0x3
 3164 0194 F5       		.byte	0xf5
 3165 0195 40       		.uleb128 0x40
 3166 0196 25       		.uleb128 0x25
 3167 0197 F3       		.byte	0xf3
 3168 0198 03       		.uleb128 0x3
 3169 0199 F5       		.byte	0xf5
 3170 019a 40       		.uleb128 0x40
 3171 019b 25       		.uleb128 0x25
 3172 019c F7       		.byte	0xf7
 3173 019d 2C       		.uleb128 0x2c
 3174 019e F7       		.byte	0xf7
 3175 019f 25       		.uleb128 0x25
 3176 01a0 1C       		.byte	0x1c
 3177 01a1 9F       		.byte	0x9f
 3178 01a2 00000000 		.4byte	0
 3179 01a6 00000000 		.4byte	0
 3180              	.LLST4:
 3181 01aa 42000000 		.4byte	.LVL4-.Ltext0
 3182 01ae 68000000 		.4byte	.LVL12-.Ltext0
 3183 01b2 0200     		.2byte	0x2
 3184 01b4 90       		.byte	0x90
 3185 01b5 4F       		.uleb128 0x4f
 3186 01b6 68000000 		.4byte	.LVL12-.Ltext0
 3187 01ba 7E000000 		.4byte	.LVL14-.Ltext0
 3188 01be 1A00     		.2byte	0x1a
ARM GAS  C:\msys64\tmp\ccczchWq.s 			page 57


 3189 01c0 F3       		.byte	0xf3
 3190 01c1 03       		.uleb128 0x3
 3191 01c2 F5       		.byte	0xf5
 3192 01c3 40       		.uleb128 0x40
 3193 01c4 25       		.uleb128 0x25
 3194 01c5 F3       		.byte	0xf3
 3195 01c6 03       		.uleb128 0x3
 3196 01c7 F5       		.byte	0xf5
 3197 01c8 40       		.uleb128 0x40
 3198 01c9 25       		.uleb128 0x25
 3199 01ca F7       		.byte	0xf7
 3200 01cb 25       		.uleb128 0x25
 3201 01cc F7       		.byte	0xf7
 3202 01cd 2C       		.uleb128 0x2c
 3203 01ce F7       		.byte	0xf7
 3204 01cf 25       		.uleb128 0x25
 3205 01d0 1C       		.byte	0x1c
 3206 01d1 F4       		.byte	0xf4
 3207 01d2 25       		.uleb128 0x25
 3208 01d3 04       		.byte	0x4
 3209 01d4 00008043 		.4byte	0x43800000
 3210 01d8 1E       		.byte	0x1e
 3211 01d9 9F       		.byte	0x9f
 3212 01da 00000000 		.4byte	0
 3213 01de 00000000 		.4byte	0
 3214              	.LLST5:
 3215 01e2 4A000000 		.4byte	.LVL5-.Ltext0
 3216 01e6 7E000000 		.4byte	.LVL14-.Ltext0
 3217 01ea 0100     		.2byte	0x1
 3218 01ec 51       		.byte	0x51
 3219 01ed 00000000 		.4byte	0
 3220 01f1 00000000 		.4byte	0
 3221              	.LLST6:
 3222 01f5 4E000000 		.4byte	.LVL6-.Ltext0
 3223 01f9 54000000 		.4byte	.LVL8-.Ltext0
 3224 01fd 0100     		.2byte	0x1
 3225 01ff 53       		.byte	0x53
 3226 0200 54000000 		.4byte	.LVL8-.Ltext0
 3227 0204 5C000000 		.4byte	.LVL9-.Ltext0
 3228 0208 0300     		.2byte	0x3
 3229 020a 73       		.byte	0x73
 3230 020b 7F       		.sleb128 -1
 3231 020c 9F       		.byte	0x9f
 3232 020d 5C000000 		.4byte	.LVL9-.Ltext0
 3233 0211 7E000000 		.4byte	.LVL14-.Ltext0
 3234 0215 0600     		.2byte	0x6
 3235 0217 71       		.byte	0x71
 3236 0218 00       		.sleb128 0
 3237 0219 08       		.byte	0x8
 3238 021a 7F       		.byte	0x7f
 3239 021b 1A       		.byte	0x1a
 3240 021c 9F       		.byte	0x9f
 3241 021d 00000000 		.4byte	0
 3242 0221 00000000 		.4byte	0
 3243              	.LLST7:
 3244 0225 4E000000 		.4byte	.LVL6-.Ltext0
 3245 0229 54000000 		.4byte	.LVL8-.Ltext0
ARM GAS  C:\msys64\tmp\ccczchWq.s 			page 58


 3246 022d 0600     		.2byte	0x6
 3247 022f 73       		.byte	0x73
 3248 0230 01       		.sleb128 1
 3249 0231 08       		.byte	0x8
 3250 0232 7F       		.byte	0x7f
 3251 0233 1A       		.byte	0x1a
 3252 0234 9F       		.byte	0x9f
 3253 0235 54000000 		.4byte	.LVL8-.Ltext0
 3254 0239 5C000000 		.4byte	.LVL9-.Ltext0
 3255 023d 0600     		.2byte	0x6
 3256 023f 73       		.byte	0x73
 3257 0240 00       		.sleb128 0
 3258 0241 08       		.byte	0x8
 3259 0242 7F       		.byte	0x7f
 3260 0243 1A       		.byte	0x1a
 3261 0244 9F       		.byte	0x9f
 3262 0245 5C000000 		.4byte	.LVL9-.Ltext0
 3263 0249 60000000 		.4byte	.LVL10-.Ltext0
 3264 024d 0100     		.2byte	0x1
 3265 024f 53       		.byte	0x53
 3266 0250 60000000 		.4byte	.LVL10-.Ltext0
 3267 0254 7E000000 		.4byte	.LVL14-.Ltext0
 3268 0258 0600     		.2byte	0x6
 3269 025a 71       		.byte	0x71
 3270 025b 01       		.sleb128 1
 3271 025c 08       		.byte	0x8
 3272 025d 7F       		.byte	0x7f
 3273 025e 1A       		.byte	0x1a
 3274 025f 9F       		.byte	0x9f
 3275 0260 00000000 		.4byte	0
 3276 0264 00000000 		.4byte	0
 3277              	.LLST8:
 3278 0268 64000000 		.4byte	.LVL11-.Ltext0
 3279 026c 76000000 		.4byte	.LVL13-.Ltext0
 3280 0270 0200     		.2byte	0x2
 3281 0272 90       		.byte	0x90
 3282 0273 40       		.uleb128 0x40
 3283 0274 00000000 		.4byte	0
 3284 0278 00000000 		.4byte	0
 3285              	.LLST9:
 3286 027c 7E000000 		.4byte	.LVL14-.Ltext0
 3287 0280 8C000000 		.4byte	.LVL15-.Ltext0
 3288 0284 0200     		.2byte	0x2
 3289 0286 90       		.byte	0x90
 3290 0287 40       		.uleb128 0x40
 3291 0288 8C000000 		.4byte	.LVL15-.Ltext0
 3292 028c E2000000 		.4byte	.LVL25-.Ltext0
 3293 0290 0600     		.2byte	0x6
 3294 0292 F3       		.byte	0xf3
 3295 0293 03       		.uleb128 0x3
 3296 0294 F5       		.byte	0xf5
 3297 0295 40       		.uleb128 0x40
 3298 0296 25       		.uleb128 0x25
 3299 0297 9F       		.byte	0x9f
 3300 0298 00000000 		.4byte	0
 3301 029c 00000000 		.4byte	0
 3302              	.LLST10:
ARM GAS  C:\msys64\tmp\ccczchWq.s 			page 59


 3303 02a0 7E000000 		.4byte	.LVL14-.Ltext0
 3304 02a4 8C000000 		.4byte	.LVL15-.Ltext0
 3305 02a8 0C00     		.2byte	0xc
 3306 02aa F5       		.byte	0xf5
 3307 02ab 40       		.uleb128 0x40
 3308 02ac 25       		.uleb128 0x25
 3309 02ad F5       		.byte	0xf5
 3310 02ae 40       		.uleb128 0x40
 3311 02af 25       		.uleb128 0x25
 3312 02b0 F7       		.byte	0xf7
 3313 02b1 2C       		.uleb128 0x2c
 3314 02b2 F7       		.byte	0xf7
 3315 02b3 25       		.uleb128 0x25
 3316 02b4 1C       		.byte	0x1c
 3317 02b5 9F       		.byte	0x9f
 3318 02b6 8C000000 		.4byte	.LVL15-.Ltext0
 3319 02ba E2000000 		.4byte	.LVL25-.Ltext0
 3320 02be 1000     		.2byte	0x10
 3321 02c0 F3       		.byte	0xf3
 3322 02c1 03       		.uleb128 0x3
 3323 02c2 F5       		.byte	0xf5
 3324 02c3 40       		.uleb128 0x40
 3325 02c4 25       		.uleb128 0x25
 3326 02c5 F3       		.byte	0xf3
 3327 02c6 03       		.uleb128 0x3
 3328 02c7 F5       		.byte	0xf5
 3329 02c8 40       		.uleb128 0x40
 3330 02c9 25       		.uleb128 0x25
 3331 02ca F7       		.byte	0xf7
 3332 02cb 2C       		.uleb128 0x2c
 3333 02cc F7       		.byte	0xf7
 3334 02cd 25       		.uleb128 0x25
 3335 02ce 1C       		.byte	0x1c
 3336 02cf 9F       		.byte	0x9f
 3337 02d0 00000000 		.4byte	0
 3338 02d4 00000000 		.4byte	0
 3339              	.LLST11:
 3340 02d8 94000000 		.4byte	.LVL16-.Ltext0
 3341 02dc C6000000 		.4byte	.LVL23-.Ltext0
 3342 02e0 0200     		.2byte	0x2
 3343 02e2 90       		.byte	0x90
 3344 02e3 4F       		.uleb128 0x4f
 3345 02e4 C6000000 		.4byte	.LVL23-.Ltext0
 3346 02e8 E2000000 		.4byte	.LVL25-.Ltext0
 3347 02ec 1A00     		.2byte	0x1a
 3348 02ee F3       		.byte	0xf3
 3349 02ef 03       		.uleb128 0x3
 3350 02f0 F5       		.byte	0xf5
 3351 02f1 40       		.uleb128 0x40
 3352 02f2 25       		.uleb128 0x25
 3353 02f3 F3       		.byte	0xf3
 3354 02f4 03       		.uleb128 0x3
 3355 02f5 F5       		.byte	0xf5
 3356 02f6 40       		.uleb128 0x40
 3357 02f7 25       		.uleb128 0x25
 3358 02f8 F7       		.byte	0xf7
 3359 02f9 25       		.uleb128 0x25
ARM GAS  C:\msys64\tmp\ccczchWq.s 			page 60


 3360 02fa F7       		.byte	0xf7
 3361 02fb 2C       		.uleb128 0x2c
 3362 02fc F7       		.byte	0xf7
 3363 02fd 25       		.uleb128 0x25
 3364 02fe 1C       		.byte	0x1c
 3365 02ff F4       		.byte	0xf4
 3366 0300 25       		.uleb128 0x25
 3367 0301 04       		.byte	0x4
 3368 0302 00008043 		.4byte	0x43800000
 3369 0306 1E       		.byte	0x1e
 3370 0307 9F       		.byte	0x9f
 3371 0308 00000000 		.4byte	0
 3372 030c 00000000 		.4byte	0
 3373              	.LLST12:
 3374 0310 9C000000 		.4byte	.LVL17-.Ltext0
 3375 0314 E4000000 		.4byte	.LVL26-.Ltext0
 3376 0318 0100     		.2byte	0x1
 3377 031a 53       		.byte	0x53
 3378 031b 00000000 		.4byte	0
 3379 031f 00000000 		.4byte	0
 3380              	.LLST13:
 3381 0323 9C000000 		.4byte	.LVL17-.Ltext0
 3382 0327 AC000000 		.4byte	.LVL19-.Ltext0
 3383 032b 0100     		.2byte	0x1
 3384 032d 53       		.byte	0x53
 3385 032e AC000000 		.4byte	.LVL19-.Ltext0
 3386 0332 BA000000 		.4byte	.LVL21-.Ltext0
 3387 0336 0100     		.2byte	0x1
 3388 0338 50       		.byte	0x50
 3389 0339 00000000 		.4byte	0
 3390 033d 00000000 		.4byte	0
 3391              	.LLST14:
 3392 0341 9C000000 		.4byte	.LVL17-.Ltext0
 3393 0345 B2000000 		.4byte	.LVL20-.Ltext0
 3394 0349 0300     		.2byte	0x3
 3395 034b 73       		.byte	0x73
 3396 034c 01       		.sleb128 1
 3397 034d 9F       		.byte	0x9f
 3398 034e B2000000 		.4byte	.LVL20-.Ltext0
 3399 0352 BE000000 		.4byte	.LVL22-.Ltext0
 3400 0356 0100     		.2byte	0x1
 3401 0358 52       		.byte	0x52
 3402 0359 00000000 		.4byte	0
 3403 035d 00000000 		.4byte	0
 3404              	.LLST15:
 3405 0361 9C000000 		.4byte	.LVL17-.Ltext0
 3406 0365 B2000000 		.4byte	.LVL20-.Ltext0
 3407 0369 0600     		.2byte	0x6
 3408 036b 9E       		.byte	0x9e
 3409 036c 04       		.uleb128 0x4
 3410 036d 0000803F 		.4byte	0x3f800000
 3411 0371 B2000000 		.4byte	.LVL20-.Ltext0
 3412 0375 DE000000 		.4byte	.LVL24-.Ltext0
 3413 0379 0600     		.2byte	0x6
 3414 037b 9E       		.byte	0x9e
 3415 037c 04       		.uleb128 0x4
 3416 037d 000080BF 		.4byte	0xbf800000
ARM GAS  C:\msys64\tmp\ccczchWq.s 			page 61


 3417 0381 DE000000 		.4byte	.LVL24-.Ltext0
 3418 0385 E2000000 		.4byte	.LVL25-.Ltext0
 3419 0389 0200     		.2byte	0x2
 3420 038b 90       		.byte	0x90
 3421 038c 4D       		.uleb128 0x4d
 3422 038d 00000000 		.4byte	0
 3423 0391 00000000 		.4byte	0
 3424              	.LLST16:
 3425 0395 E4000000 		.4byte	.LVL26-.Ltext0
 3426 0399 F0000000 		.4byte	.LVL27-.Ltext0
 3427 039d 0200     		.2byte	0x2
 3428 039f 90       		.byte	0x90
 3429 03a0 40       		.uleb128 0x40
 3430 03a1 F0000000 		.4byte	.LVL27-.Ltext0
 3431 03a5 52010000 		.4byte	.LVL41-.Ltext0
 3432 03a9 0600     		.2byte	0x6
 3433 03ab F3       		.byte	0xf3
 3434 03ac 03       		.uleb128 0x3
 3435 03ad F5       		.byte	0xf5
 3436 03ae 40       		.uleb128 0x40
 3437 03af 25       		.uleb128 0x25
 3438 03b0 9F       		.byte	0x9f
 3439 03b1 00000000 		.4byte	0
 3440 03b5 00000000 		.4byte	0
 3441              	.LLST17:
 3442 03b9 E4000000 		.4byte	.LVL26-.Ltext0
 3443 03bd F0000000 		.4byte	.LVL27-.Ltext0
 3444 03c1 0C00     		.2byte	0xc
 3445 03c3 F5       		.byte	0xf5
 3446 03c4 40       		.uleb128 0x40
 3447 03c5 25       		.uleb128 0x25
 3448 03c6 F5       		.byte	0xf5
 3449 03c7 40       		.uleb128 0x40
 3450 03c8 25       		.uleb128 0x25
 3451 03c9 F7       		.byte	0xf7
 3452 03ca 2C       		.uleb128 0x2c
 3453 03cb F7       		.byte	0xf7
 3454 03cc 25       		.uleb128 0x25
 3455 03cd 1C       		.byte	0x1c
 3456 03ce 9F       		.byte	0x9f
 3457 03cf F0000000 		.4byte	.LVL27-.Ltext0
 3458 03d3 52010000 		.4byte	.LVL41-.Ltext0
 3459 03d7 1000     		.2byte	0x10
 3460 03d9 F3       		.byte	0xf3
 3461 03da 03       		.uleb128 0x3
 3462 03db F5       		.byte	0xf5
 3463 03dc 40       		.uleb128 0x40
 3464 03dd 25       		.uleb128 0x25
 3465 03de F3       		.byte	0xf3
 3466 03df 03       		.uleb128 0x3
 3467 03e0 F5       		.byte	0xf5
 3468 03e1 40       		.uleb128 0x40
 3469 03e2 25       		.uleb128 0x25
 3470 03e3 F7       		.byte	0xf7
 3471 03e4 2C       		.uleb128 0x2c
 3472 03e5 F7       		.byte	0xf7
 3473 03e6 25       		.uleb128 0x25
ARM GAS  C:\msys64\tmp\ccczchWq.s 			page 62


 3474 03e7 1C       		.byte	0x1c
 3475 03e8 9F       		.byte	0x9f
 3476 03e9 00000000 		.4byte	0
 3477 03ed 00000000 		.4byte	0
 3478              	.LLST18:
 3479 03f1 F8000000 		.4byte	.LVL28-.Ltext0
 3480 03f5 46010000 		.4byte	.LVL40-.Ltext0
 3481 03f9 0200     		.2byte	0x2
 3482 03fb 90       		.byte	0x90
 3483 03fc 4F       		.uleb128 0x4f
 3484 03fd 46010000 		.4byte	.LVL40-.Ltext0
 3485 0401 52010000 		.4byte	.LVL41-.Ltext0
 3486 0405 1A00     		.2byte	0x1a
 3487 0407 F3       		.byte	0xf3
 3488 0408 03       		.uleb128 0x3
 3489 0409 F5       		.byte	0xf5
 3490 040a 40       		.uleb128 0x40
 3491 040b 25       		.uleb128 0x25
 3492 040c F3       		.byte	0xf3
 3493 040d 03       		.uleb128 0x3
 3494 040e F5       		.byte	0xf5
 3495 040f 40       		.uleb128 0x40
 3496 0410 25       		.uleb128 0x25
 3497 0411 F7       		.byte	0xf7
 3498 0412 25       		.uleb128 0x25
 3499 0413 F7       		.byte	0xf7
 3500 0414 2C       		.uleb128 0x2c
 3501 0415 F7       		.byte	0xf7
 3502 0416 25       		.uleb128 0x25
 3503 0417 1C       		.byte	0x1c
 3504 0418 F4       		.byte	0xf4
 3505 0419 25       		.uleb128 0x25
 3506 041a 04       		.byte	0x4
 3507 041b 00008043 		.4byte	0x43800000
 3508 041f 1E       		.byte	0x1e
 3509 0420 9F       		.byte	0x9f
 3510 0421 00000000 		.4byte	0
 3511 0425 00000000 		.4byte	0
 3512              	.LLST19:
 3513 0429 00010000 		.4byte	.LVL29-.Ltext0
 3514 042d 52010000 		.4byte	.LVL41-.Ltext0
 3515 0431 0100     		.2byte	0x1
 3516 0433 53       		.byte	0x53
 3517 0434 00000000 		.4byte	0
 3518 0438 00000000 		.4byte	0
 3519              	.LLST20:
 3520 043c 0C010000 		.4byte	.LVL30-.Ltext0
 3521 0440 0E010000 		.4byte	.LVL31-.Ltext0
 3522 0444 0100     		.2byte	0x1
 3523 0446 52       		.byte	0x52
 3524 0447 0E010000 		.4byte	.LVL31-.Ltext0
 3525 044b 22010000 		.4byte	.LVL34-.Ltext0
 3526 044f 0100     		.2byte	0x1
 3527 0451 53       		.byte	0x53
 3528 0452 22010000 		.4byte	.LVL34-.Ltext0
 3529 0456 26010000 		.4byte	.LVL36-.Ltext0
 3530 045a 0100     		.2byte	0x1
ARM GAS  C:\msys64\tmp\ccczchWq.s 			page 63


 3531 045c 52       		.byte	0x52
 3532 045d 26010000 		.4byte	.LVL36-.Ltext0
 3533 0461 2C010000 		.4byte	.LVL37-.Ltext0
 3534 0465 0100     		.2byte	0x1
 3535 0467 53       		.byte	0x53
 3536 0468 2C010000 		.4byte	.LVL37-.Ltext0
 3537 046c 3A010000 		.4byte	.LVL38-.Ltext0
 3538 0470 0100     		.2byte	0x1
 3539 0472 52       		.byte	0x52
 3540 0473 00000000 		.4byte	0
 3541 0477 00000000 		.4byte	0
 3542              	.LLST21:
 3543 047b 2C010000 		.4byte	.LVL37-.Ltext0
 3544 047f 54010000 		.4byte	.LVL42-.Ltext0
 3545 0483 0100     		.2byte	0x1
 3546 0485 50       		.byte	0x50
 3547 0486 00000000 		.4byte	0
 3548 048a 00000000 		.4byte	0
 3549              	.LLST22:
 3550 048e 42010000 		.4byte	.LVL39-.Ltext0
 3551 0492 52010000 		.4byte	.LVL41-.Ltext0
 3552 0496 0200     		.2byte	0x2
 3553 0498 90       		.byte	0x90
 3554 0499 40       		.uleb128 0x40
 3555 049a 00000000 		.4byte	0
 3556 049e 00000000 		.4byte	0
 3557              	.LLST23:
 3558 04a2 42010000 		.4byte	.LVL39-.Ltext0
 3559 04a6 46010000 		.4byte	.LVL40-.Ltext0
 3560 04aa 0B00     		.2byte	0xb
 3561 04ac F5       		.byte	0xf5
 3562 04ad 4F       		.uleb128 0x4f
 3563 04ae 25       		.uleb128 0x25
 3564 04af 73       		.byte	0x73
 3565 04b0 00       		.sleb128 0
 3566 04b1 F7       		.byte	0xf7
 3567 04b2 2C       		.uleb128 0x2c
 3568 04b3 F7       		.byte	0xf7
 3569 04b4 25       		.uleb128 0x25
 3570 04b5 1C       		.byte	0x1c
 3571 04b6 9F       		.byte	0x9f
 3572 04b7 46010000 		.4byte	.LVL40-.Ltext0
 3573 04bb 52010000 		.4byte	.LVL41-.Ltext0
 3574 04bf 0200     		.2byte	0x2
 3575 04c1 90       		.byte	0x90
 3576 04c2 4F       		.uleb128 0x4f
 3577 04c3 00000000 		.4byte	0
 3578 04c7 00000000 		.4byte	0
 3579              	.LLST24:
 3580 04cb 94010000 		.4byte	.LVL48-.Ltext0
 3581 04cf BC010000 		.4byte	.LVL50-.Ltext0
 3582 04d3 0200     		.2byte	0x2
 3583 04d5 90       		.byte	0x90
 3584 04d6 40       		.uleb128 0x40
 3585 04d7 BC010000 		.4byte	.LVL50-.Ltext0
 3586 04db 50020000 		.4byte	.LFE283-.Ltext0
 3587 04df 0600     		.2byte	0x6
ARM GAS  C:\msys64\tmp\ccczchWq.s 			page 64


 3588 04e1 F3       		.byte	0xf3
 3589 04e2 03       		.uleb128 0x3
 3590 04e3 F5       		.byte	0xf5
 3591 04e4 40       		.uleb128 0x40
 3592 04e5 25       		.uleb128 0x25
 3593 04e6 9F       		.byte	0x9f
 3594 04e7 00000000 		.4byte	0
 3595 04eb 00000000 		.4byte	0
 3596              	.LLST25:
 3597 04ef 94010000 		.4byte	.LVL48-.Ltext0
 3598 04f3 BC010000 		.4byte	.LVL50-.Ltext0
 3599 04f7 0200     		.2byte	0x2
 3600 04f9 90       		.byte	0x90
 3601 04fa 41       		.uleb128 0x41
 3602 04fb BC010000 		.4byte	.LVL50-.Ltext0
 3603 04ff 50020000 		.4byte	.LFE283-.Ltext0
 3604 0503 0600     		.2byte	0x6
 3605 0505 F3       		.byte	0xf3
 3606 0506 03       		.uleb128 0x3
 3607 0507 F5       		.byte	0xf5
 3608 0508 41       		.uleb128 0x41
 3609 0509 25       		.uleb128 0x25
 3610 050a 9F       		.byte	0x9f
 3611 050b 00000000 		.4byte	0
 3612 050f 00000000 		.4byte	0
 3613              	.LLST26:
 3614 0513 94010000 		.4byte	.LVL48-.Ltext0
 3615 0517 BC010000 		.4byte	.LVL50-.Ltext0
 3616 051b 0100     		.2byte	0x1
 3617 051d 50       		.byte	0x50
 3618 051e BC010000 		.4byte	.LVL50-.Ltext0
 3619 0522 3A020000 		.4byte	.LVL59-.Ltext0
 3620 0526 0100     		.2byte	0x1
 3621 0528 55       		.byte	0x55
 3622 0529 3A020000 		.4byte	.LVL59-.Ltext0
 3623 052d 3C020000 		.4byte	.LVL60-.Ltext0
 3624 0531 0300     		.2byte	0x3
 3625 0533 75       		.byte	0x75
 3626 0534 7C       		.sleb128 -4
 3627 0535 9F       		.byte	0x9f
 3628 0536 3C020000 		.4byte	.LVL60-.Ltext0
 3629 053a 48020000 		.4byte	.LVL61-.Ltext0
 3630 053e 0100     		.2byte	0x1
 3631 0540 55       		.byte	0x55
 3632 0541 00000000 		.4byte	0
 3633 0545 00000000 		.4byte	0
 3634              	.LLST27:
 3635 0549 94010000 		.4byte	.LVL48-.Ltext0
 3636 054d BC010000 		.4byte	.LVL50-.Ltext0
 3637 0551 0100     		.2byte	0x1
 3638 0553 51       		.byte	0x51
 3639 0554 BC010000 		.4byte	.LVL50-.Ltext0
 3640 0558 50020000 		.4byte	.LFE283-.Ltext0
 3641 055c 0400     		.2byte	0x4
 3642 055e F3       		.byte	0xf3
 3643 055f 01       		.uleb128 0x1
 3644 0560 51       		.byte	0x51
ARM GAS  C:\msys64\tmp\ccczchWq.s 			page 65


 3645 0561 9F       		.byte	0x9f
 3646 0562 00000000 		.4byte	0
 3647 0566 00000000 		.4byte	0
 3648              	.LLST28:
 3649 056a B6010000 		.4byte	.LVL49-.Ltext0
 3650 056e 48020000 		.4byte	.LVL61-.Ltext0
 3651 0572 0100     		.2byte	0x1
 3652 0574 57       		.byte	0x57
 3653 0575 48020000 		.4byte	.LVL61-.Ltext0
 3654 0579 50020000 		.4byte	.LFE283-.Ltext0
 3655 057d 0A00     		.2byte	0xa
 3656 057f F3       		.byte	0xf3
 3657 0580 01       		.uleb128 0x1
 3658 0581 51       		.byte	0x51
 3659 0582 32       		.byte	0x32
 3660 0583 24       		.byte	0x24
 3661 0584 F3       		.byte	0xf3
 3662 0585 01       		.uleb128 0x1
 3663 0586 50       		.byte	0x50
 3664 0587 22       		.byte	0x22
 3665 0588 9F       		.byte	0x9f
 3666 0589 00000000 		.4byte	0
 3667 058d 00000000 		.4byte	0
 3668              	.LLST29:
 3669 0591 C0010000 		.4byte	.LVL51-.Ltext0
 3670 0595 DE010000 		.4byte	.LVL52-.Ltext0
 3671 0599 0200     		.2byte	0x2
 3672 059b 90       		.byte	0x90
 3673 059c 4B       		.uleb128 0x4b
 3674 059d DE010000 		.4byte	.LVL52-.Ltext0
 3675 05a1 E1010000 		.4byte	.LVL53-1-.Ltext0
 3676 05a5 0200     		.2byte	0x2
 3677 05a7 90       		.byte	0x90
 3678 05a8 40       		.uleb128 0x40
 3679 05a9 00000000 		.4byte	0
 3680 05ad 00000000 		.4byte	0
 3681              	.LLST30:
 3682 05b1 F2010000 		.4byte	.LVL54-.Ltext0
 3683 05b5 F8010000 		.4byte	.LVL55-.Ltext0
 3684 05b9 0200     		.2byte	0x2
 3685 05bb 90       		.byte	0x90
 3686 05bc 40       		.uleb128 0x40
 3687 05bd F8010000 		.4byte	.LVL55-.Ltext0
 3688 05c1 19020000 		.4byte	.LVL57-1-.Ltext0
 3689 05c5 0200     		.2byte	0x2
 3690 05c7 90       		.byte	0x90
 3691 05c8 4A       		.uleb128 0x4a
 3692 05c9 00000000 		.4byte	0
 3693 05cd 00000000 		.4byte	0
 3694              	.LLST31:
 3695 05d1 16020000 		.4byte	.LVL56-.Ltext0
 3696 05d5 19020000 		.4byte	.LVL57-1-.Ltext0
 3697 05d9 0200     		.2byte	0x2
 3698 05db 90       		.byte	0x90
 3699 05dc 40       		.uleb128 0x40
 3700 05dd 00000000 		.4byte	0
 3701 05e1 00000000 		.4byte	0
ARM GAS  C:\msys64\tmp\ccczchWq.s 			page 66


 3702              	.LLST32:
 3703 05e5 1A020000 		.4byte	.LVL57-.Ltext0
 3704 05e9 22020000 		.4byte	.LVL58-.Ltext0
 3705 05ed 0200     		.2byte	0x2
 3706 05ef 90       		.byte	0x90
 3707 05f0 40       		.uleb128 0x40
 3708 05f1 00000000 		.4byte	0
 3709 05f5 00000000 		.4byte	0
 3710              	.LLST33:
 3711 05f9 50020000 		.4byte	.LVL62-.Ltext0
 3712 05fd 62020000 		.4byte	.LVL64-.Ltext0
 3713 0601 0100     		.2byte	0x1
 3714 0603 50       		.byte	0x50
 3715 0604 62020000 		.4byte	.LVL64-.Ltext0
 3716 0608 20030000 		.4byte	.LFE284-.Ltext0
 3717 060c 0400     		.2byte	0x4
 3718 060e F3       		.byte	0xf3
 3719 060f 01       		.uleb128 0x1
 3720 0610 50       		.byte	0x50
 3721 0611 9F       		.byte	0x9f
 3722 0612 00000000 		.4byte	0
 3723 0616 00000000 		.4byte	0
 3724              	.LLST34:
 3725 061a 50020000 		.4byte	.LVL62-.Ltext0
 3726 061e 56020000 		.4byte	.LVL63-.Ltext0
 3727 0622 0100     		.2byte	0x1
 3728 0624 51       		.byte	0x51
 3729 0625 56020000 		.4byte	.LVL63-.Ltext0
 3730 0629 06030000 		.4byte	.LVL79-.Ltext0
 3731 062d 0100     		.2byte	0x1
 3732 062f 54       		.byte	0x54
 3733 0630 06030000 		.4byte	.LVL79-.Ltext0
 3734 0634 09030000 		.4byte	.LVL80-1-.Ltext0
 3735 0638 0100     		.2byte	0x1
 3736 063a 50       		.byte	0x50
 3737 063b 09030000 		.4byte	.LVL80-1-.Ltext0
 3738 063f 20030000 		.4byte	.LFE284-.Ltext0
 3739 0643 0400     		.2byte	0x4
 3740 0645 F3       		.byte	0xf3
 3741 0646 01       		.uleb128 0x1
 3742 0647 51       		.byte	0x51
 3743 0648 9F       		.byte	0x9f
 3744 0649 00000000 		.4byte	0
 3745 064d 00000000 		.4byte	0
 3746              	.LLST35:
 3747 0651 50020000 		.4byte	.LVL62-.Ltext0
 3748 0655 09030000 		.4byte	.LVL80-1-.Ltext0
 3749 0659 0100     		.2byte	0x1
 3750 065b 52       		.byte	0x52
 3751 065c 09030000 		.4byte	.LVL80-1-.Ltext0
 3752 0660 20030000 		.4byte	.LFE284-.Ltext0
 3753 0664 0400     		.2byte	0x4
 3754 0666 F3       		.byte	0xf3
 3755 0667 01       		.uleb128 0x1
 3756 0668 52       		.byte	0x52
 3757 0669 9F       		.byte	0x9f
 3758 066a 00000000 		.4byte	0
ARM GAS  C:\msys64\tmp\ccczchWq.s 			page 67


 3759 066e 00000000 		.4byte	0
 3760              	.LLST36:
 3761 0672 EC020000 		.4byte	.LVL75-.Ltext0
 3762 0676 09030000 		.4byte	.LVL80-1-.Ltext0
 3763 067a 0200     		.2byte	0x2
 3764 067c 90       		.byte	0x90
 3765 067d 40       		.uleb128 0x40
 3766 067e 00000000 		.4byte	0
 3767 0682 00000000 		.4byte	0
 3768              	.LLST37:
 3769 0686 02030000 		.4byte	.LVL78-.Ltext0
 3770 068a 09030000 		.4byte	.LVL80-1-.Ltext0
 3771 068e 0200     		.2byte	0x2
 3772 0690 90       		.byte	0x90
 3773 0691 41       		.uleb128 0x41
 3774 0692 00000000 		.4byte	0
 3775 0696 00000000 		.4byte	0
 3776              	.LLST38:
 3777 069a 02030000 		.4byte	.LVL78-.Ltext0
 3778 069e 06030000 		.4byte	.LVL79-.Ltext0
 3779 06a2 0100     		.2byte	0x1
 3780 06a4 54       		.byte	0x54
 3781 06a5 06030000 		.4byte	.LVL79-.Ltext0
 3782 06a9 09030000 		.4byte	.LVL80-1-.Ltext0
 3783 06ad 0100     		.2byte	0x1
 3784 06af 50       		.byte	0x50
 3785 06b0 09030000 		.4byte	.LVL80-1-.Ltext0
 3786 06b4 20030000 		.4byte	.LFE284-.Ltext0
 3787 06b8 0400     		.2byte	0x4
 3788 06ba F3       		.byte	0xf3
 3789 06bb 01       		.uleb128 0x1
 3790 06bc 51       		.byte	0x51
 3791 06bd 9F       		.byte	0x9f
 3792 06be 00000000 		.4byte	0
 3793 06c2 00000000 		.4byte	0
 3794              	.LLST39:
 3795 06c6 6A020000 		.4byte	.LVL65-.Ltext0
 3796 06ca 6C020000 		.4byte	.LVL66-.Ltext0
 3797 06ce 0100     		.2byte	0x1
 3798 06d0 51       		.byte	0x51
 3799 06d1 6C020000 		.4byte	.LVL66-.Ltext0
 3800 06d5 7E020000 		.4byte	.LVL68-.Ltext0
 3801 06d9 0200     		.2byte	0x2
 3802 06db 90       		.byte	0x90
 3803 06dc 4E       		.uleb128 0x4e
 3804 06dd 7E020000 		.4byte	.LVL68-.Ltext0
 3805 06e1 E2020000 		.4byte	.LVL74-.Ltext0
 3806 06e5 0800     		.2byte	0x8
 3807 06e7 F3       		.byte	0xf3
 3808 06e8 01       		.uleb128 0x1
 3809 06e9 50       		.byte	0x50
 3810 06ea 23       		.byte	0x23
 3811 06eb 04       		.uleb128 0x4
 3812 06ec 94       		.byte	0x94
 3813 06ed 02       		.byte	0x2
 3814 06ee 9F       		.byte	0x9f
 3815 06ef 00000000 		.4byte	0
ARM GAS  C:\msys64\tmp\ccczchWq.s 			page 68


 3816 06f3 00000000 		.4byte	0
 3817              	.LLST40:
 3818 06f7 6A020000 		.4byte	.LVL65-.Ltext0
 3819 06fb 9C020000 		.4byte	.LVL71-.Ltext0
 3820 06ff 0100     		.2byte	0x1
 3821 0701 53       		.byte	0x53
 3822 0702 9C020000 		.4byte	.LVL71-.Ltext0
 3823 0706 E2020000 		.4byte	.LVL74-.Ltext0
 3824 070a 0E00     		.2byte	0xe
 3825 070c F3       		.byte	0xf3
 3826 070d 01       		.uleb128 0x1
 3827 070e 50       		.byte	0x50
 3828 070f 23       		.byte	0x23
 3829 0710 04       		.uleb128 0x4
 3830 0711 94       		.byte	0x94
 3831 0712 02       		.byte	0x2
 3832 0713 0A       		.byte	0xa
 3833 0714 FFFF     		.2byte	0xffff
 3834 0716 1A       		.byte	0x1a
 3835 0717 38       		.byte	0x38
 3836 0718 26       		.byte	0x26
 3837 0719 9F       		.byte	0x9f
 3838 071a 00000000 		.4byte	0
 3839 071e 00000000 		.4byte	0
 3840              	.LLST41:
 3841 0722 6A020000 		.4byte	.LVL65-.Ltext0
 3842 0726 8A020000 		.4byte	.LVL69-.Ltext0
 3843 072a 0100     		.2byte	0x1
 3844 072c 53       		.byte	0x53
 3845 072d 00000000 		.4byte	0
 3846 0731 00000000 		.4byte	0
 3847              	.LLST42:
 3848 0735 6A020000 		.4byte	.LVL65-.Ltext0
 3849 0739 74020000 		.4byte	.LVL67-.Ltext0
 3850 073d 0300     		.2byte	0x3
 3851 073f 08       		.byte	0x8
 3852 0740 97       		.byte	0x97
 3853 0741 9F       		.byte	0x9f
 3854 0742 00000000 		.4byte	0
 3855 0746 00000000 		.4byte	0
 3856              	.LLST43:
 3857 074a 6A020000 		.4byte	.LVL65-.Ltext0
 3858 074e 74020000 		.4byte	.LVL67-.Ltext0
 3859 0752 0100     		.2byte	0x1
 3860 0754 50       		.byte	0x50
 3861 0755 00000000 		.4byte	0
 3862 0759 00000000 		.4byte	0
 3863              	.LLST44:
 3864 075d 90020000 		.4byte	.LVL70-.Ltext0
 3865 0761 A0020000 		.4byte	.LVL72-.Ltext0
 3866 0765 0200     		.2byte	0x2
 3867 0767 90       		.byte	0x90
 3868 0768 4E       		.uleb128 0x4e
 3869 0769 00000000 		.4byte	0
 3870 076d 00000000 		.4byte	0
 3871              	.LLST45:
 3872 0771 A0020000 		.4byte	.LVL72-.Ltext0
ARM GAS  C:\msys64\tmp\ccczchWq.s 			page 69


 3873 0775 B4020000 		.4byte	.LVL73-.Ltext0
 3874 0779 0600     		.2byte	0x6
 3875 077b 9E       		.byte	0x9e
 3876 077c 04       		.uleb128 0x4
 3877 077d 49FFB846 		.4byte	0x46b8ff49
 3878 0781 00000000 		.4byte	0
 3879 0785 00000000 		.4byte	0
 3880              	.LLST48:
 3881 0789 A0020000 		.4byte	.LVL72-.Ltext0
 3882 078d B4020000 		.4byte	.LVL73-.Ltext0
 3883 0791 0C00     		.2byte	0xc
 3884 0793 F5       		.byte	0xf5
 3885 0794 40       		.uleb128 0x40
 3886 0795 25       		.uleb128 0x25
 3887 0796 F4       		.byte	0xf4
 3888 0797 25       		.uleb128 0x25
 3889 0798 04       		.byte	0x4
 3890 0799 49FFB846 		.4byte	0x46b8ff49
 3891 079d 1C       		.byte	0x1c
 3892 079e 9F       		.byte	0x9f
 3893 079f 00000000 		.4byte	0
 3894 07a3 00000000 		.4byte	0
 3895              	.LLST49:
 3896 07a7 EC020000 		.4byte	.LVL75-.Ltext0
 3897 07ab FE020000 		.4byte	.LVL77-.Ltext0
 3898 07af 0800     		.2byte	0x8
 3899 07b1 F3       		.byte	0xf3
 3900 07b2 01       		.uleb128 0x1
 3901 07b3 50       		.byte	0x50
 3902 07b4 23       		.byte	0x23
 3903 07b5 04       		.uleb128 0x4
 3904 07b6 94       		.byte	0x94
 3905 07b7 02       		.byte	0x2
 3906 07b8 9F       		.byte	0x9f
 3907 07b9 00000000 		.4byte	0
 3908 07bd 00000000 		.4byte	0
 3909              	.LLST50:
 3910 07c1 EC020000 		.4byte	.LVL75-.Ltext0
 3911 07c5 FA020000 		.4byte	.LVL76-.Ltext0
 3912 07c9 0600     		.2byte	0x6
 3913 07cb 9E       		.byte	0x9e
 3914 07cc 04       		.uleb128 0x4
 3915 07cd 49FFB846 		.4byte	0x46b8ff49
 3916 07d1 00000000 		.4byte	0
 3917 07d5 00000000 		.4byte	0
 3918              	.LLST53:
 3919 07d9 EC020000 		.4byte	.LVL75-.Ltext0
 3920 07dd FA020000 		.4byte	.LVL76-.Ltext0
 3921 07e1 0C00     		.2byte	0xc
 3922 07e3 F5       		.byte	0xf5
 3923 07e4 41       		.uleb128 0x41
 3924 07e5 25       		.uleb128 0x25
 3925 07e6 F4       		.byte	0xf4
 3926 07e7 25       		.uleb128 0x25
 3927 07e8 04       		.byte	0x4
 3928 07e9 49FFB846 		.4byte	0x46b8ff49
 3929 07ed 1C       		.byte	0x1c
ARM GAS  C:\msys64\tmp\ccczchWq.s 			page 70


 3930 07ee 9F       		.byte	0x9f
 3931 07ef 00000000 		.4byte	0
 3932 07f3 00000000 		.4byte	0
 3933              		.section	.debug_aranges,"",%progbits
 3934 0000 1C000000 		.4byte	0x1c
 3935 0004 0200     		.2byte	0x2
 3936 0006 00000000 		.4byte	.Ldebug_info0
 3937 000a 04       		.byte	0x4
 3938 000b 00       		.byte	0
 3939 000c 0000     		.2byte	0
 3940 000e 0000     		.2byte	0
 3941 0010 00000000 		.4byte	.Ltext0
 3942 0014 48030000 		.4byte	.Letext0-.Ltext0
 3943 0018 00000000 		.4byte	0
 3944 001c 00000000 		.4byte	0
 3945              		.section	.debug_ranges,"",%progbits
 3946              	.Ldebug_ranges0:
 3947 0000 54000000 		.4byte	.LBB78-.Ltext0
 3948 0004 58000000 		.4byte	.LBE78-.Ltext0
 3949 0008 64000000 		.4byte	.LBB82-.Ltext0
 3950 000c 70000000 		.4byte	.LBE82-.Ltext0
 3951 0010 72000000 		.4byte	.LBB83-.Ltext0
 3952 0014 76000000 		.4byte	.LBE83-.Ltext0
 3953 0018 00000000 		.4byte	0
 3954 001c 00000000 		.4byte	0
 3955 0020 2C010000 		.4byte	.LBB88-.Ltext0
 3956 0024 30010000 		.4byte	.LBE88-.Ltext0
 3957 0028 32010000 		.4byte	.LBB92-.Ltext0
 3958 002c 36010000 		.4byte	.LBE92-.Ltext0
 3959 0030 42010000 		.4byte	.LBB93-.Ltext0
 3960 0034 52010000 		.4byte	.LBE93-.Ltext0
 3961 0038 00000000 		.4byte	0
 3962 003c 00000000 		.4byte	0
 3963 0040 94010000 		.4byte	.LBB95-.Ltext0
 3964 0044 A2010000 		.4byte	.LBE95-.Ltext0
 3965 0048 A6010000 		.4byte	.LBB96-.Ltext0
 3966 004c AC010000 		.4byte	.LBE96-.Ltext0
 3967 0050 B8010000 		.4byte	.LBB97-.Ltext0
 3968 0054 BC010000 		.4byte	.LBE97-.Ltext0
 3969 0058 C0010000 		.4byte	.LBB98-.Ltext0
 3970 005c 3A020000 		.4byte	.LBE98-.Ltext0
 3971 0060 00000000 		.4byte	0
 3972 0064 00000000 		.4byte	0
 3973 0068 56020000 		.4byte	.LBB101-.Ltext0
 3974 006c 60020000 		.4byte	.LBE101-.Ltext0
 3975 0070 6A020000 		.4byte	.LBB137-.Ltext0
 3976 0074 8A020000 		.4byte	.LBE137-.Ltext0
 3977 0078 8C020000 		.4byte	.LBB138-.Ltext0
 3978 007c 94020000 		.4byte	.LBE138-.Ltext0
 3979 0080 96020000 		.4byte	.LBB139-.Ltext0
 3980 0084 9A020000 		.4byte	.LBE139-.Ltext0
 3981 0088 9C020000 		.4byte	.LBB140-.Ltext0
 3982 008c A0020000 		.4byte	.LBE140-.Ltext0
 3983 0090 A2020000 		.4byte	.LBB141-.Ltext0
 3984 0094 B4020000 		.4byte	.LBE141-.Ltext0
 3985 0098 DE020000 		.4byte	.LBB170-.Ltext0
 3986 009c E2020000 		.4byte	.LBE170-.Ltext0
ARM GAS  C:\msys64\tmp\ccczchWq.s 			page 71


 3987 00a0 00000000 		.4byte	0
 3988 00a4 00000000 		.4byte	0
 3989 00a8 56020000 		.4byte	.LBB103-.Ltext0
 3990 00ac 58020000 		.4byte	.LBE103-.Ltext0
 3991 00b0 6C020000 		.4byte	.LBB111-.Ltext0
 3992 00b4 6E020000 		.4byte	.LBE111-.Ltext0
 3993 00b8 70020000 		.4byte	.LBB112-.Ltext0
 3994 00bc 74020000 		.4byte	.LBE112-.Ltext0
 3995 00c0 7E020000 		.4byte	.LBB118-.Ltext0
 3996 00c4 82020000 		.4byte	.LBE118-.Ltext0
 3997 00c8 86020000 		.4byte	.LBB120-.Ltext0
 3998 00cc 8A020000 		.4byte	.LBE120-.Ltext0
 3999 00d0 00000000 		.4byte	0
 4000 00d4 00000000 		.4byte	0
 4001 00d8 74020000 		.4byte	.LBB113-.Ltext0
 4002 00dc 7A020000 		.4byte	.LBE113-.Ltext0
 4003 00e0 82020000 		.4byte	.LBB119-.Ltext0
 4004 00e4 86020000 		.4byte	.LBE119-.Ltext0
 4005 00e8 00000000 		.4byte	0
 4006 00ec 00000000 		.4byte	0
 4007 00f0 90020000 		.4byte	.LBB121-.Ltext0
 4008 00f4 94020000 		.4byte	.LBE121-.Ltext0
 4009 00f8 96020000 		.4byte	.LBB125-.Ltext0
 4010 00fc 9A020000 		.4byte	.LBE125-.Ltext0
 4011 0100 9C020000 		.4byte	.LBB126-.Ltext0
 4012 0104 A0020000 		.4byte	.LBE126-.Ltext0
 4013 0108 00000000 		.4byte	0
 4014 010c 00000000 		.4byte	0
 4015 0110 B4020000 		.4byte	.LBB142-.Ltext0
 4016 0114 DE020000 		.4byte	.LBE142-.Ltext0
 4017 0118 E2020000 		.4byte	.LBB171-.Ltext0
 4018 011c E6020000 		.4byte	.LBE171-.Ltext0
 4019 0120 EC020000 		.4byte	.LBB172-.Ltext0
 4020 0124 FE020000 		.4byte	.LBE172-.Ltext0
 4021 0128 00000000 		.4byte	0
 4022 012c 00000000 		.4byte	0
 4023 0130 B4020000 		.4byte	.LBB144-.Ltext0
 4024 0134 BA020000 		.4byte	.LBE144-.Ltext0
 4025 0138 C0020000 		.4byte	.LBB151-.Ltext0
 4026 013c C4020000 		.4byte	.LBE151-.Ltext0
 4027 0140 CA020000 		.4byte	.LBB157-.Ltext0
 4028 0144 CE020000 		.4byte	.LBE157-.Ltext0
 4029 0148 D2020000 		.4byte	.LBB159-.Ltext0
 4030 014c D6020000 		.4byte	.LBE159-.Ltext0
 4031 0150 00000000 		.4byte	0
 4032 0154 00000000 		.4byte	0
 4033 0158 C4020000 		.4byte	.LBB152-.Ltext0
 4034 015c CA020000 		.4byte	.LBE152-.Ltext0
 4035 0160 CE020000 		.4byte	.LBB158-.Ltext0
 4036 0164 D2020000 		.4byte	.LBE158-.Ltext0
 4037 0168 00000000 		.4byte	0
 4038 016c 00000000 		.4byte	0
 4039 0170 D6020000 		.4byte	.LBB160-.Ltext0
 4040 0174 DE020000 		.4byte	.LBE160-.Ltext0
 4041 0178 E2020000 		.4byte	.LBB163-.Ltext0
 4042 017c E6020000 		.4byte	.LBE163-.Ltext0
 4043 0180 00000000 		.4byte	0
ARM GAS  C:\msys64\tmp\ccczchWq.s 			page 72


 4044 0184 00000000 		.4byte	0
 4045              		.section	.debug_line,"",%progbits
 4046              	.Ldebug_line0:
 4047 0000 42030000 		.section	.debug_str,"MS",%progbits,1
 4047      0200BC01 
 4047      00000201 
 4047      FB0E0D00 
 4047      01010101 
 4048              	.LASF53:
 4049 0000 636C616D 		.ascii	"clampmaxfsel\000"
 4049      706D6178 
 4049      6673656C 
 4049      00
 4050              	.LASF24:
 4051 000d 6B5F7573 		.ascii	"k_user_module_modfx\000"
 4051      65725F6D 
 4051      6F64756C 
 4051      655F6D6F 
 4051      64667800 
 4052              	.LASF82:
 4053 0021 77745F73 		.ascii	"wt_sqr_lut_f\000"
 4053      71725F6C 
 4053      75745F66 
 4053      00
 4054              	.LASF77:
 4055 002e 6B5F6F73 		.ascii	"k_osc_api_platform\000"
 4055      635F6170 
 4055      695F706C 
 4055      6174666F 
 4055      726D00
 4056              	.LASF66:
 4057 0041 74797065 		.ascii	"type\000"
 4057      00
 4058              	.LASF13:
 4059 0046 6C6F6E67 		.ascii	"long long unsigned int\000"
 4059      206C6F6E 
 4059      6720756E 
 4059      7369676E 
 4059      65642069 
 4060              	.LASF85:
 4061 005d 74616E70 		.ascii	"tanpi_lut_f\000"
 4061      695F6C75 
 4061      745F6600 
 4062              	.LASF74:
 4063 0069 5F686F6F 		.ascii	"_hook_param\000"
 4063      6B5F7061 
 4063      72616D00 
 4064              	.LASF44:
 4065 0075 75736572 		.ascii	"user_osc_param_id_t\000"
 4065      5F6F7363 
 4065      5F706172 
 4065      616D5F69 
 4065      645F7400 
 4066              	.LASF12:
 4067 0089 6C6F6E67 		.ascii	"long long int\000"
 4067      206C6F6E 
 4067      6720696E 
ARM GAS  C:\msys64\tmp\ccczchWq.s 			page 73


 4067      7400
 4068              	.LASF2:
 4069 0097 7369676E 		.ascii	"signed char\000"
 4069      65642063 
 4069      68617200 
 4070              	.LASF81:
 4071 00a3 77745F73 		.ascii	"wt_saw_lut_f\000"
 4071      61775F6C 
 4071      75745F66 
 4071      00
 4072              	.LASF54:
 4073 00b0 636C6970 		.ascii	"clipmaxu32\000"
 4073      6D617875 
 4073      333200
 4074              	.LASF71:
 4075 00bb 5F686F6F 		.ascii	"_hook_init\000"
 4075      6B5F696E 
 4075      697400
 4076              	.LASF65:
 4077 00c6 70686173 		.ascii	"phase\000"
 4077      6500
 4078              	.LASF9:
 4079 00cc 6C6F6E67 		.ascii	"long int\000"
 4079      20696E74 
 4079      00
 4080              	.LASF92:
 4081 00d5 6D795F6F 		.ascii	"my_osc.cpp\000"
 4081      73632E63 
 4081      707000
 4082              	.LASF90:
 4083 00e0 735F7374 		.ascii	"s_state\000"
 4083      61746500 
 4084              	.LASF15:
 4085 00e8 75696E74 		.ascii	"uint16_t\000"
 4085      31365F74 
 4085      00
 4086              	.LASF21:
 4087 00f1 646F7562 		.ascii	"double\000"
 4087      6C6500
 4088              	.LASF29:
 4089 00f8 73686170 		.ascii	"shape_lfo\000"
 4089      655F6C66 
 4089      6F00
 4090              	.LASF98:
 4091 0102 5F686F6F 		.ascii	"_hook_off\000"
 4091      6B5F6F66 
 4091      6600
 4092              	.LASF10:
 4093 010c 5F5F7569 		.ascii	"__uint32_t\000"
 4093      6E743332 
 4093      5F7400
 4094              	.LASF76:
 4095 0117 76616C75 		.ascii	"value\000"
 4095      6500
 4096              	.LASF1:
 4097 011d 756E7369 		.ascii	"unsigned int\000"
 4097      676E6564 
ARM GAS  C:\msys64\tmp\ccczchWq.s 			page 74


 4097      20696E74 
 4097      00
 4098              	.LASF41:
 4099 012a 6B5F7573 		.ascii	"k_user_osc_param_shape\000"
 4099      65725F6F 
 4099      73635F70 
 4099      6172616D 
 4099      5F736861 
 4100              	.LASF11:
 4101 0141 6C6F6E67 		.ascii	"long unsigned int\000"
 4101      20756E73 
 4101      69676E65 
 4101      6420696E 
 4101      7400
 4102              	.LASF27:
 4103 0153 6B5F7573 		.ascii	"k_user_module_osc\000"
 4103      65725F6D 
 4103      6F64756C 
 4103      655F6F73 
 4103      6300
 4104              	.LASF49:
 4105 0165 6E6F7465 		.ascii	"note_offset\000"
 4105      5F6F6666 
 4105      73657400 
 4106              	.LASF78:
 4107 0171 6B5F6F73 		.ascii	"k_osc_api_version\000"
 4107      635F6170 
 4107      695F7665 
 4107      7273696F 
 4107      6E00
 4108              	.LASF62:
 4109 0183 6F73635F 		.ascii	"osc_parf\000"
 4109      70617266 
 4109      00
 4110              	.LASF87:
 4111 018c 63756269 		.ascii	"cubicsat_lut_f\000"
 4111      63736174 
 4111      5F6C7574 
 4111      5F6600
 4112              	.LASF63:
 4113 019b 6F73635F 		.ascii	"osc_w0f_for_note\000"
 4113      7730665F 
 4113      666F725F 
 4113      6E6F7465 
 4113      00
 4114              	.LASF7:
 4115 01ac 73686F72 		.ascii	"short unsigned int\000"
 4115      7420756E 
 4115      7369676E 
 4115      65642069 
 4115      6E7400
 4116              	.LASF96:
 4117 01bf 5F5A336F 		.ascii	"_Z3oscft\000"
 4117      73636674 
 4117      00
 4118              	.LASF28:
 4119 01c8 6B5F6E75 		.ascii	"k_num_user_modules\000"
ARM GAS  C:\msys64\tmp\ccczchWq.s 			page 75


 4119      6D5F7573 
 4119      65725F6D 
 4119      6F64756C 
 4119      657300
 4120              	.LASF93:
 4121 01db 433A5C55 		.ascii	"C:\\Users\\Guillaume\\Documents\\cpp\\logue-sdk\\pl"
 4121      73657273 
 4121      5C477569 
 4121      6C6C6175 
 4121      6D655C44 
 4122 0208 6174666F 		.ascii	"atform\\nutekt-digital\\m_osc\000"
 4122      726D5C6E 
 4122      7574656B 
 4122      742D6469 
 4122      67697461 
 4123              	.LASF34:
 4124 0224 75736572 		.ascii	"user_osc_param_t\000"
 4124      5F6F7363 
 4124      5F706172 
 4124      616D5F74 
 4124      00
 4125              	.LASF4:
 4126 0235 73686F72 		.ascii	"short int\000"
 4126      7420696E 
 4126      7400
 4127              	.LASF56:
 4128 023f 6C696E69 		.ascii	"linintf\000"
 4128      6E746600 
 4129              	.LASF94:
 4130 0247 6465636C 		.ascii	"decltype(nullptr)\000"
 4130      74797065 
 4130      286E756C 
 4130      6C707472 
 4130      2900
 4131              	.LASF72:
 4132 0259 5F686F6F 		.ascii	"_hook_cycle\000"
 4132      6B5F6379 
 4132      636C6500 
 4133              	.LASF57:
 4134 0265 6F73635F 		.ascii	"osc_notehzf\000"
 4134      6E6F7465 
 4134      687A6600 
 4135              	.LASF50:
 4136 0271 74797065 		.ascii	"type0\000"
 4136      3000
 4137              	.LASF51:
 4138 0277 74797065 		.ascii	"type1\000"
 4138      3100
 4139              	.LASF45:
 4140 027d 75736572 		.ascii	"user_osc_param\000"
 4140      5F6F7363 
 4140      5F706172 
 4140      616D00
 4141              	.LASF19:
 4142 028c 73697A65 		.ascii	"sizetype\000"
 4142      74797065 
 4142      00
ARM GAS  C:\msys64\tmp\ccczchWq.s 			page 76


 4143              	.LASF32:
 4144 0295 7265736F 		.ascii	"resonance\000"
 4144      6E616E63 
 4144      6500
 4145              	.LASF67:
 4146 029f 636F6D70 		.ascii	"computePhases\000"
 4146      75746550 
 4146      68617365 
 4146      7300
 4147              	.LASF60:
 4148 02ad 6F73635F 		.ascii	"osc_sawf\000"
 4148      73617766 
 4148      00
 4149              	.LASF64:
 4150 02b6 706C6174 		.ascii	"platform\000"
 4150      666F726D 
 4150      00
 4151              	.LASF30:
 4152 02bf 70697463 		.ascii	"pitch\000"
 4152      6800
 4153              	.LASF80:
 4154 02c5 77745F73 		.ascii	"wt_sine_lut_f\000"
 4154      696E655F 
 4154      6C75745F 
 4154      6600
 4155              	.LASF0:
 4156 02d3 666C6F61 		.ascii	"float\000"
 4156      7400
 4157              	.LASF47:
 4158 02d9 70686173 		.ascii	"phase0\000"
 4158      653000
 4159              	.LASF48:
 4160 02e0 70686173 		.ascii	"phase1\000"
 4160      653100
 4161              	.LASF91:
 4162 02e7 474E5520 		.ascii	"GNU C++11 5.4.1 20160919 (release) [ARM/embedded-5-"
 4162      432B2B31 
 4162      3120352E 
 4162      342E3120 
 4162      32303136 
 4163 031a 6272616E 		.ascii	"branch revision 240496] -mcpu=cortex-m4 -mthumb -mn"
 4163      63682072 
 4163      65766973 
 4163      696F6E20 
 4163      32343034 
 4164 034d 6F2D7468 		.ascii	"o-thumb-interwork -mlittle-endian -mfloat-abi=hard "
 4164      756D622D 
 4164      696E7465 
 4164      72776F72 
 4164      6B202D6D 
 4165 0380 2D6D6670 		.ascii	"-mfpu=fpv4-sp-d16 -g -Os -std=c++11 -fsingle-precis"
 4165      753D6670 
 4165      76342D73 
 4165      702D6431 
 4165      36202D67 
 4166 03b3 696F6E2D 		.ascii	"ion-constant -fcheck-new -fno-rtti -fno-exceptions "
 4166      636F6E73 
ARM GAS  C:\msys64\tmp\ccczchWq.s 			page 77


 4166      74616E74 
 4166      202D6663 
 4166      6865636B 
 4167 03e6 2D666E6F 		.ascii	"-fno-non-call-exceptions\000"
 4167      2D6E6F6E 
 4167      2D63616C 
 4167      6C2D6578 
 4167      63657074 
 4168              	.LASF42:
 4169 03ff 6B5F7573 		.ascii	"k_user_osc_param_shiftshape\000"
 4169      65725F6F 
 4169      73635F70 
 4169      6172616D 
 4169      5F736869 
 4170              	.LASF16:
 4171 041b 696E7433 		.ascii	"int32_t\000"
 4171      325F7400 
 4172              	.LASF3:
 4173 0423 756E7369 		.ascii	"unsigned char\000"
 4173      676E6564 
 4173      20636861 
 4173      7200
 4174              	.LASF58:
 4175 0431 6E6F7465 		.ascii	"note\000"
 4175      00
 4176              	.LASF26:
 4177 0436 6B5F7573 		.ascii	"k_user_module_revfx\000"
 4177      65725F6D 
 4177      6F64756C 
 4177      655F7265 
 4177      76667800 
 4178              	.LASF25:
 4179 044a 6B5F7573 		.ascii	"k_user_module_delfx\000"
 4179      65725F6D 
 4179      6F64756C 
 4179      655F6465 
 4179      6C667800 
 4180              	.LASF97:
 4181 045e 5F5A3133 		.ascii	"_Z13computePhasesffPlm\000"
 4181      636F6D70 
 4181      75746550 
 4181      68617365 
 4181      73666650 
 4182              	.LASF73:
 4183 0475 70617261 		.ascii	"params\000"
 4183      6D7300
 4184              	.LASF22:
 4185 047c 7133315F 		.ascii	"q31_t\000"
 4185      7400
 4186              	.LASF17:
 4187 0482 75696E74 		.ascii	"uint32_t\000"
 4187      33325F74 
 4187      00
 4188              	.LASF5:
 4189 048b 5F5F7569 		.ascii	"__uint8_t\000"
 4189      6E74385F 
 4189      7400
ARM GAS  C:\msys64\tmp\ccczchWq.s 			page 78


 4190              	.LASF79:
 4191 0495 6D696469 		.ascii	"midi_to_hz_lut_f\000"
 4191      5F746F5F 
 4191      687A5F6C 
 4191      75745F66 
 4191      00
 4192              	.LASF18:
 4193 04a6 6C6F6E67 		.ascii	"long double\000"
 4193      20646F75 
 4193      626C6500 
 4194              	.LASF88:
 4195 04b2 73636865 		.ascii	"schetzen_lut_f\000"
 4195      747A656E 
 4195      5F6C7574 
 4195      5F6600
 4196              	.LASF20:
 4197 04c1 63686172 		.ascii	"char\000"
 4197      00
 4198              	.LASF46:
 4199 04c6 53746174 		.ascii	"State\000"
 4199      6500
 4200              	.LASF6:
 4201 04cc 5F5F7569 		.ascii	"__uint16_t\000"
 4201      6E743136 
 4201      5F7400
 4202              	.LASF55:
 4203 04d7 636C6970 		.ascii	"clipmaxf\000"
 4203      6D617866 
 4203      00
 4204              	.LASF75:
 4205 04e0 696E6465 		.ascii	"index\000"
 4205      7800
 4206              	.LASF70:
 4207 04e6 73696731 		.ascii	"sig1\000"
 4207      00
 4208              	.LASF95:
 4209 04eb 31397573 		.ascii	"19user_osc_param_id_t\000"
 4209      65725F6F 
 4209      73635F70 
 4209      6172616D 
 4209      5F69645F 
 4210              	.LASF8:
 4211 0501 5F5F696E 		.ascii	"__int32_t\000"
 4211      7433325F 
 4211      7400
 4212              	.LASF35:
 4213 050b 6B5F7573 		.ascii	"k_user_osc_param_id1\000"
 4213      65725F6F 
 4213      73635F70 
 4213      6172616D 
 4213      5F696431 
 4214              	.LASF36:
 4215 0520 6B5F7573 		.ascii	"k_user_osc_param_id2\000"
 4215      65725F6F 
 4215      73635F70 
 4215      6172616D 
 4215      5F696432 
ARM GAS  C:\msys64\tmp\ccczchWq.s 			page 79


 4216              	.LASF37:
 4217 0535 6B5F7573 		.ascii	"k_user_osc_param_id3\000"
 4217      65725F6F 
 4217      73635F70 
 4217      6172616D 
 4217      5F696433 
 4218              	.LASF38:
 4219 054a 6B5F7573 		.ascii	"k_user_osc_param_id4\000"
 4219      65725F6F 
 4219      73635F70 
 4219      6172616D 
 4219      5F696434 
 4220              	.LASF39:
 4221 055f 6B5F7573 		.ascii	"k_user_osc_param_id5\000"
 4221      65725F6F 
 4221      73635F70 
 4221      6172616D 
 4221      5F696435 
 4222              	.LASF40:
 4223 0574 6B5F7573 		.ascii	"k_user_osc_param_id6\000"
 4223      65725F6F 
 4223      73635F70 
 4223      6172616D 
 4223      5F696436 
 4224              	.LASF83:
 4225 0589 77745F70 		.ascii	"wt_par_lut_f\000"
 4225      61725F6C 
 4225      75745F66 
 4225      00
 4226              	.LASF23:
 4227 0596 6B5F7573 		.ascii	"k_user_module_global\000"
 4227      65725F6D 
 4227      6F64756C 
 4227      655F676C 
 4227      6F62616C 
 4228              	.LASF31:
 4229 05ab 6375746F 		.ascii	"cutoff\000"
 4229      666600
 4230              	.LASF84:
 4231 05b2 6C6F675F 		.ascii	"log_lut_f\000"
 4231      6C75745F 
 4231      6600
 4232              	.LASF14:
 4233 05bc 75696E74 		.ascii	"uint8_t\000"
 4233      385F7400 
 4234              	.LASF61:
 4235 05c4 7369676E 		.ascii	"sign\000"
 4235      00
 4236              	.LASF86:
 4237 05c9 73717274 		.ascii	"sqrtm2log_lut_f\000"
 4237      6D326C6F 
 4237      675F6C75 
 4237      745F6600 
 4238              	.LASF59:
 4239 05d9 6F73635F 		.ascii	"osc_sinf\000"
 4239      73696E66 
 4239      00
ARM GAS  C:\msys64\tmp\ccczchWq.s 			page 80


 4240              	.LASF43:
 4241 05e2 6B5F6E75 		.ascii	"k_num_user_osc_param_id\000"
 4241      6D5F7573 
 4241      65725F6F 
 4241      73635F70 
 4241      6172616D 
 4242              	.LASF89:
 4243 05fa 62697472 		.ascii	"bitres_lut_f\000"
 4243      65735F6C 
 4243      75745F66 
 4243      00
 4244              	.LASF33:
 4245 0607 72657365 		.ascii	"reserved0\000"
 4245      72766564 
 4245      3000
 4246              	.LASF69:
 4247 0611 73696730 		.ascii	"sig0\000"
 4247      00
 4248              	.LASF52:
 4249 0616 6673656C 		.ascii	"fsel\000"
 4249      00
 4250              	.LASF68:
 4251 061b 6672616D 		.ascii	"frames\000"
 4251      657300
 4252              		.ident	"GCC: (GNU Tools for ARM Embedded Processors) 5.4.1 20160919 (release) [ARM/embedded-5-bran
ARM GAS  C:\msys64\tmp\ccczchWq.s 			page 81


DEFINED SYMBOLS
                            *ABS*:00000000 my_osc.cpp
C:\msys64\tmp\ccczchWq.s:21     .text:00000000 $t
C:\msys64\tmp\ccczchWq.s:26     .text:00000000 _hook_init
C:\msys64\tmp\ccczchWq.s:56     .text:00000018 $d
C:\msys64\tmp\ccczchWq.s:60     .text:0000001c $t
C:\msys64\tmp\ccczchWq.s:65     .text:0000001c _Z3oscft
C:\msys64\tmp\ccczchWq.s:78     .text:00000026 $d
C:\msys64\tmp\ccczchWq.s:324    .text:00000178 $d
C:\msys64\tmp\ccczchWq.s:334    .text:00000194 $t
C:\msys64\tmp\ccczchWq.s:339    .text:00000194 _Z13computePhasesffPlm
C:\msys64\tmp\ccczchWq.s:471    .text:00000248 $d
C:\msys64\tmp\ccczchWq.s:476    .text:00000250 $t
C:\msys64\tmp\ccczchWq.s:481    .text:00000250 _hook_cycle
C:\msys64\tmp\ccczchWq.s:764    .text:0000030c $d
C:\msys64\tmp\ccczchWq.s:772    .text:00000320 $t
C:\msys64\tmp\ccczchWq.s:777    .text:00000320 _hook_on
C:\msys64\tmp\ccczchWq.s:792    .text:00000322 _hook_off
C:\msys64\tmp\ccczchWq.s:809    .text:00000324 _hook_param
C:\msys64\tmp\ccczchWq.s:844    .text:00000344 $d
C:\msys64\tmp\ccczchWq.s:849    .bss:00000000 $d
C:\msys64\tmp\ccczchWq.s:853    .bss:00000000 _ZL7s_state
                     .debug_frame:00000010 $d
C:\msys64\tmp\ccczchWq.s:83     .text:0000002b $d
C:\msys64\tmp\ccczchWq.s:83     .text:0000002c $t

UNDEFINED SYMBOLS
wt_sine_lut_f
wt_saw_lut_f
wt_par_lut_f
midi_to_hz_lut_f
